ARM GAS  /tmp/ccZZ89G2.s 			page 1


   1              		.cpu cortex-m4
   2              		.eabi_attribute 27, 1
   3              		.eabi_attribute 28, 1
   4              		.eabi_attribute 20, 1
   5              		.eabi_attribute 21, 1
   6              		.eabi_attribute 23, 3
   7              		.eabi_attribute 24, 1
   8              		.eabi_attribute 25, 1
   9              		.eabi_attribute 26, 1
  10              		.eabi_attribute 30, 6
  11              		.eabi_attribute 34, 1
  12              		.eabi_attribute 18, 4
  13              		.file	"stm32f4xx_hal_gpio.c"
  14              		.text
  15              	.Ltext0:
  16              		.cfi_sections	.debug_frame
  17              		.section	.rodata
  18              		.align	2
  19              	.LC0:
  20 0000 44726976 		.ascii	"Drivers/STM32F4xx_HAL_Driver/Src/stm32f4xx_hal_gpio"
  20      6572732F 
  20      53544D33 
  20      32463478 
  20      785F4841 
  21 0033 2E6300   		.ascii	".c\000"
  22              		.section	.text.HAL_GPIO_Init,"ax",%progbits
  23              		.align	1
  24              		.global	HAL_GPIO_Init
  25              		.arch armv7e-m
  26              		.syntax unified
  27              		.thumb
  28              		.thumb_func
  29              		.fpu fpv4-sp-d16
  31              	HAL_GPIO_Init:
  32              	.LFB130:
  33              		.file 1 "Drivers/STM32F4xx_HAL_Driver/Src/stm32f4xx_hal_gpio.c"
   1:Drivers/STM32F4xx_HAL_Driver/Src/stm32f4xx_hal_gpio.c **** /**
   2:Drivers/STM32F4xx_HAL_Driver/Src/stm32f4xx_hal_gpio.c ****   ******************************************************************************
   3:Drivers/STM32F4xx_HAL_Driver/Src/stm32f4xx_hal_gpio.c ****   * @file    stm32f4xx_hal_gpio.c
   4:Drivers/STM32F4xx_HAL_Driver/Src/stm32f4xx_hal_gpio.c ****   * @author  MCD Application Team
   5:Drivers/STM32F4xx_HAL_Driver/Src/stm32f4xx_hal_gpio.c ****   * @brief   GPIO HAL module driver.
   6:Drivers/STM32F4xx_HAL_Driver/Src/stm32f4xx_hal_gpio.c ****   *          This file provides firmware functions to manage the following 
   7:Drivers/STM32F4xx_HAL_Driver/Src/stm32f4xx_hal_gpio.c ****   *          functionalities of the General Purpose Input/Output (GPIO) peripheral:
   8:Drivers/STM32F4xx_HAL_Driver/Src/stm32f4xx_hal_gpio.c ****   *           + Initialization and de-initialization functions
   9:Drivers/STM32F4xx_HAL_Driver/Src/stm32f4xx_hal_gpio.c ****   *           + IO operation functions
  10:Drivers/STM32F4xx_HAL_Driver/Src/stm32f4xx_hal_gpio.c ****   *
  11:Drivers/STM32F4xx_HAL_Driver/Src/stm32f4xx_hal_gpio.c ****   ******************************************************************************
  12:Drivers/STM32F4xx_HAL_Driver/Src/stm32f4xx_hal_gpio.c ****   * @attention
  13:Drivers/STM32F4xx_HAL_Driver/Src/stm32f4xx_hal_gpio.c ****   *
  14:Drivers/STM32F4xx_HAL_Driver/Src/stm32f4xx_hal_gpio.c ****   * Copyright (c) 2017 STMicroelectronics.
  15:Drivers/STM32F4xx_HAL_Driver/Src/stm32f4xx_hal_gpio.c ****   * All rights reserved.
  16:Drivers/STM32F4xx_HAL_Driver/Src/stm32f4xx_hal_gpio.c ****   *
  17:Drivers/STM32F4xx_HAL_Driver/Src/stm32f4xx_hal_gpio.c ****   * This software is licensed under terms that can be found in the LICENSE file
  18:Drivers/STM32F4xx_HAL_Driver/Src/stm32f4xx_hal_gpio.c ****   * in the root directory of this software component.
  19:Drivers/STM32F4xx_HAL_Driver/Src/stm32f4xx_hal_gpio.c ****   * If no LICENSE file comes with this software, it is provided AS-IS.
  20:Drivers/STM32F4xx_HAL_Driver/Src/stm32f4xx_hal_gpio.c ****   *
  21:Drivers/STM32F4xx_HAL_Driver/Src/stm32f4xx_hal_gpio.c ****   ******************************************************************************
ARM GAS  /tmp/ccZZ89G2.s 			page 2


  22:Drivers/STM32F4xx_HAL_Driver/Src/stm32f4xx_hal_gpio.c ****   @verbatim
  23:Drivers/STM32F4xx_HAL_Driver/Src/stm32f4xx_hal_gpio.c ****   ==============================================================================
  24:Drivers/STM32F4xx_HAL_Driver/Src/stm32f4xx_hal_gpio.c ****                     ##### GPIO Peripheral features #####
  25:Drivers/STM32F4xx_HAL_Driver/Src/stm32f4xx_hal_gpio.c ****   ==============================================================================
  26:Drivers/STM32F4xx_HAL_Driver/Src/stm32f4xx_hal_gpio.c ****   [..] 
  27:Drivers/STM32F4xx_HAL_Driver/Src/stm32f4xx_hal_gpio.c ****   Subject to the specific hardware characteristics of each I/O port listed in the datasheet, each
  28:Drivers/STM32F4xx_HAL_Driver/Src/stm32f4xx_hal_gpio.c ****   port bit of the General Purpose IO (GPIO) Ports, can be individually configured by software
  29:Drivers/STM32F4xx_HAL_Driver/Src/stm32f4xx_hal_gpio.c ****   in several modes:
  30:Drivers/STM32F4xx_HAL_Driver/Src/stm32f4xx_hal_gpio.c ****   (+) Input mode 
  31:Drivers/STM32F4xx_HAL_Driver/Src/stm32f4xx_hal_gpio.c ****   (+) Analog mode
  32:Drivers/STM32F4xx_HAL_Driver/Src/stm32f4xx_hal_gpio.c ****   (+) Output mode
  33:Drivers/STM32F4xx_HAL_Driver/Src/stm32f4xx_hal_gpio.c ****   (+) Alternate function mode
  34:Drivers/STM32F4xx_HAL_Driver/Src/stm32f4xx_hal_gpio.c ****   (+) External interrupt/event lines
  35:Drivers/STM32F4xx_HAL_Driver/Src/stm32f4xx_hal_gpio.c **** 
  36:Drivers/STM32F4xx_HAL_Driver/Src/stm32f4xx_hal_gpio.c ****   [..]  
  37:Drivers/STM32F4xx_HAL_Driver/Src/stm32f4xx_hal_gpio.c ****   During and just after reset, the alternate functions and external interrupt  
  38:Drivers/STM32F4xx_HAL_Driver/Src/stm32f4xx_hal_gpio.c ****   lines are not active and the I/O ports are configured in input floating mode.
  39:Drivers/STM32F4xx_HAL_Driver/Src/stm32f4xx_hal_gpio.c ****   
  40:Drivers/STM32F4xx_HAL_Driver/Src/stm32f4xx_hal_gpio.c ****   [..]   
  41:Drivers/STM32F4xx_HAL_Driver/Src/stm32f4xx_hal_gpio.c ****   All GPIO pins have weak internal pull-up and pull-down resistors, which can be 
  42:Drivers/STM32F4xx_HAL_Driver/Src/stm32f4xx_hal_gpio.c ****   activated or not.
  43:Drivers/STM32F4xx_HAL_Driver/Src/stm32f4xx_hal_gpio.c **** 
  44:Drivers/STM32F4xx_HAL_Driver/Src/stm32f4xx_hal_gpio.c ****   [..]
  45:Drivers/STM32F4xx_HAL_Driver/Src/stm32f4xx_hal_gpio.c ****   In Output or Alternate mode, each IO can be configured on open-drain or push-pull
  46:Drivers/STM32F4xx_HAL_Driver/Src/stm32f4xx_hal_gpio.c ****   type and the IO speed can be selected depending on the VDD value.
  47:Drivers/STM32F4xx_HAL_Driver/Src/stm32f4xx_hal_gpio.c **** 
  48:Drivers/STM32F4xx_HAL_Driver/Src/stm32f4xx_hal_gpio.c ****   [..]  
  49:Drivers/STM32F4xx_HAL_Driver/Src/stm32f4xx_hal_gpio.c ****   All ports have external interrupt/event capability. To use external interrupt 
  50:Drivers/STM32F4xx_HAL_Driver/Src/stm32f4xx_hal_gpio.c ****   lines, the port must be configured in input mode. All available GPIO pins are 
  51:Drivers/STM32F4xx_HAL_Driver/Src/stm32f4xx_hal_gpio.c ****   connected to the 16 external interrupt/event lines from EXTI0 to EXTI15.
  52:Drivers/STM32F4xx_HAL_Driver/Src/stm32f4xx_hal_gpio.c ****   
  53:Drivers/STM32F4xx_HAL_Driver/Src/stm32f4xx_hal_gpio.c ****   [..]
  54:Drivers/STM32F4xx_HAL_Driver/Src/stm32f4xx_hal_gpio.c ****   The external interrupt/event controller consists of up to 23 edge detectors 
  55:Drivers/STM32F4xx_HAL_Driver/Src/stm32f4xx_hal_gpio.c ****   (16 lines are connected to GPIO) for generating event/interrupt requests (each 
  56:Drivers/STM32F4xx_HAL_Driver/Src/stm32f4xx_hal_gpio.c ****   input line can be independently configured to select the type (interrupt or event) 
  57:Drivers/STM32F4xx_HAL_Driver/Src/stm32f4xx_hal_gpio.c ****   and the corresponding trigger event (rising or falling or both). Each line can 
  58:Drivers/STM32F4xx_HAL_Driver/Src/stm32f4xx_hal_gpio.c ****   also be masked independently. 
  59:Drivers/STM32F4xx_HAL_Driver/Src/stm32f4xx_hal_gpio.c **** 
  60:Drivers/STM32F4xx_HAL_Driver/Src/stm32f4xx_hal_gpio.c ****                      ##### How to use this driver #####
  61:Drivers/STM32F4xx_HAL_Driver/Src/stm32f4xx_hal_gpio.c ****   ==============================================================================  
  62:Drivers/STM32F4xx_HAL_Driver/Src/stm32f4xx_hal_gpio.c ****   [..]
  63:Drivers/STM32F4xx_HAL_Driver/Src/stm32f4xx_hal_gpio.c ****     (#) Enable the GPIO AHB clock using the following function: __HAL_RCC_GPIOx_CLK_ENABLE(). 
  64:Drivers/STM32F4xx_HAL_Driver/Src/stm32f4xx_hal_gpio.c **** 
  65:Drivers/STM32F4xx_HAL_Driver/Src/stm32f4xx_hal_gpio.c ****     (#) Configure the GPIO pin(s) using HAL_GPIO_Init().
  66:Drivers/STM32F4xx_HAL_Driver/Src/stm32f4xx_hal_gpio.c ****         (++) Configure the IO mode using "Mode" member from GPIO_InitTypeDef structure
  67:Drivers/STM32F4xx_HAL_Driver/Src/stm32f4xx_hal_gpio.c ****         (++) Activate Pull-up, Pull-down resistor using "Pull" member from GPIO_InitTypeDef 
  68:Drivers/STM32F4xx_HAL_Driver/Src/stm32f4xx_hal_gpio.c ****              structure.
  69:Drivers/STM32F4xx_HAL_Driver/Src/stm32f4xx_hal_gpio.c ****         (++) In case of Output or alternate function mode selection: the speed is 
  70:Drivers/STM32F4xx_HAL_Driver/Src/stm32f4xx_hal_gpio.c ****              configured through "Speed" member from GPIO_InitTypeDef structure.
  71:Drivers/STM32F4xx_HAL_Driver/Src/stm32f4xx_hal_gpio.c ****         (++) In alternate mode is selection, the alternate function connected to the IO
  72:Drivers/STM32F4xx_HAL_Driver/Src/stm32f4xx_hal_gpio.c ****              is configured through "Alternate" member from GPIO_InitTypeDef structure.
  73:Drivers/STM32F4xx_HAL_Driver/Src/stm32f4xx_hal_gpio.c ****         (++) Analog mode is required when a pin is to be used as ADC channel 
  74:Drivers/STM32F4xx_HAL_Driver/Src/stm32f4xx_hal_gpio.c ****              or DAC output.
  75:Drivers/STM32F4xx_HAL_Driver/Src/stm32f4xx_hal_gpio.c ****         (++) In case of external interrupt/event selection the "Mode" member from 
  76:Drivers/STM32F4xx_HAL_Driver/Src/stm32f4xx_hal_gpio.c ****              GPIO_InitTypeDef structure select the type (interrupt or event) and 
  77:Drivers/STM32F4xx_HAL_Driver/Src/stm32f4xx_hal_gpio.c ****              the corresponding trigger event (rising or falling or both).
  78:Drivers/STM32F4xx_HAL_Driver/Src/stm32f4xx_hal_gpio.c **** 
ARM GAS  /tmp/ccZZ89G2.s 			page 3


  79:Drivers/STM32F4xx_HAL_Driver/Src/stm32f4xx_hal_gpio.c ****     (#) In case of external interrupt/event mode selection, configure NVIC IRQ priority 
  80:Drivers/STM32F4xx_HAL_Driver/Src/stm32f4xx_hal_gpio.c ****         mapped to the EXTI line using HAL_NVIC_SetPriority() and enable it using
  81:Drivers/STM32F4xx_HAL_Driver/Src/stm32f4xx_hal_gpio.c ****         HAL_NVIC_EnableIRQ().
  82:Drivers/STM32F4xx_HAL_Driver/Src/stm32f4xx_hal_gpio.c ****          
  83:Drivers/STM32F4xx_HAL_Driver/Src/stm32f4xx_hal_gpio.c ****     (#) To get the level of a pin configured in input mode use HAL_GPIO_ReadPin().
  84:Drivers/STM32F4xx_HAL_Driver/Src/stm32f4xx_hal_gpio.c ****             
  85:Drivers/STM32F4xx_HAL_Driver/Src/stm32f4xx_hal_gpio.c ****     (#) To set/reset the level of a pin configured in output mode use 
  86:Drivers/STM32F4xx_HAL_Driver/Src/stm32f4xx_hal_gpio.c ****         HAL_GPIO_WritePin()/HAL_GPIO_TogglePin().
  87:Drivers/STM32F4xx_HAL_Driver/Src/stm32f4xx_hal_gpio.c ****     
  88:Drivers/STM32F4xx_HAL_Driver/Src/stm32f4xx_hal_gpio.c ****     (#) To lock pin configuration until next reset use HAL_GPIO_LockPin().
  89:Drivers/STM32F4xx_HAL_Driver/Src/stm32f4xx_hal_gpio.c **** 
  90:Drivers/STM32F4xx_HAL_Driver/Src/stm32f4xx_hal_gpio.c ****                  
  91:Drivers/STM32F4xx_HAL_Driver/Src/stm32f4xx_hal_gpio.c ****     (#) During and just after reset, the alternate functions are not 
  92:Drivers/STM32F4xx_HAL_Driver/Src/stm32f4xx_hal_gpio.c ****         active and the GPIO pins are configured in input floating mode (except JTAG
  93:Drivers/STM32F4xx_HAL_Driver/Src/stm32f4xx_hal_gpio.c ****         pins).
  94:Drivers/STM32F4xx_HAL_Driver/Src/stm32f4xx_hal_gpio.c ****   
  95:Drivers/STM32F4xx_HAL_Driver/Src/stm32f4xx_hal_gpio.c ****     (#) The LSE oscillator pins OSC32_IN and OSC32_OUT can be used as general purpose 
  96:Drivers/STM32F4xx_HAL_Driver/Src/stm32f4xx_hal_gpio.c ****         (PC14 and PC15, respectively) when the LSE oscillator is off. The LSE has 
  97:Drivers/STM32F4xx_HAL_Driver/Src/stm32f4xx_hal_gpio.c ****         priority over the GPIO function.
  98:Drivers/STM32F4xx_HAL_Driver/Src/stm32f4xx_hal_gpio.c ****   
  99:Drivers/STM32F4xx_HAL_Driver/Src/stm32f4xx_hal_gpio.c ****     (#) The HSE oscillator pins OSC_IN/OSC_OUT can be used as 
 100:Drivers/STM32F4xx_HAL_Driver/Src/stm32f4xx_hal_gpio.c ****         general purpose PH0 and PH1, respectively, when the HSE oscillator is off. 
 101:Drivers/STM32F4xx_HAL_Driver/Src/stm32f4xx_hal_gpio.c ****         The HSE has priority over the GPIO function.
 102:Drivers/STM32F4xx_HAL_Driver/Src/stm32f4xx_hal_gpio.c ****   
 103:Drivers/STM32F4xx_HAL_Driver/Src/stm32f4xx_hal_gpio.c ****   @endverbatim
 104:Drivers/STM32F4xx_HAL_Driver/Src/stm32f4xx_hal_gpio.c ****   ******************************************************************************
 105:Drivers/STM32F4xx_HAL_Driver/Src/stm32f4xx_hal_gpio.c ****   */ 
 106:Drivers/STM32F4xx_HAL_Driver/Src/stm32f4xx_hal_gpio.c **** 
 107:Drivers/STM32F4xx_HAL_Driver/Src/stm32f4xx_hal_gpio.c **** /* Includes ------------------------------------------------------------------*/
 108:Drivers/STM32F4xx_HAL_Driver/Src/stm32f4xx_hal_gpio.c **** #include "stm32f4xx_hal.h"
 109:Drivers/STM32F4xx_HAL_Driver/Src/stm32f4xx_hal_gpio.c **** 
 110:Drivers/STM32F4xx_HAL_Driver/Src/stm32f4xx_hal_gpio.c **** /** @addtogroup STM32F4xx_HAL_Driver
 111:Drivers/STM32F4xx_HAL_Driver/Src/stm32f4xx_hal_gpio.c ****   * @{
 112:Drivers/STM32F4xx_HAL_Driver/Src/stm32f4xx_hal_gpio.c ****   */
 113:Drivers/STM32F4xx_HAL_Driver/Src/stm32f4xx_hal_gpio.c **** 
 114:Drivers/STM32F4xx_HAL_Driver/Src/stm32f4xx_hal_gpio.c **** /** @defgroup GPIO GPIO
 115:Drivers/STM32F4xx_HAL_Driver/Src/stm32f4xx_hal_gpio.c ****   * @brief GPIO HAL module driver
 116:Drivers/STM32F4xx_HAL_Driver/Src/stm32f4xx_hal_gpio.c ****   * @{
 117:Drivers/STM32F4xx_HAL_Driver/Src/stm32f4xx_hal_gpio.c ****   */
 118:Drivers/STM32F4xx_HAL_Driver/Src/stm32f4xx_hal_gpio.c **** 
 119:Drivers/STM32F4xx_HAL_Driver/Src/stm32f4xx_hal_gpio.c **** #ifdef HAL_GPIO_MODULE_ENABLED
 120:Drivers/STM32F4xx_HAL_Driver/Src/stm32f4xx_hal_gpio.c **** 
 121:Drivers/STM32F4xx_HAL_Driver/Src/stm32f4xx_hal_gpio.c **** /* Private typedef -----------------------------------------------------------*/
 122:Drivers/STM32F4xx_HAL_Driver/Src/stm32f4xx_hal_gpio.c **** /* Private define ------------------------------------------------------------*/
 123:Drivers/STM32F4xx_HAL_Driver/Src/stm32f4xx_hal_gpio.c **** /** @addtogroup GPIO_Private_Constants GPIO Private Constants
 124:Drivers/STM32F4xx_HAL_Driver/Src/stm32f4xx_hal_gpio.c ****   * @{
 125:Drivers/STM32F4xx_HAL_Driver/Src/stm32f4xx_hal_gpio.c ****   */
 126:Drivers/STM32F4xx_HAL_Driver/Src/stm32f4xx_hal_gpio.c **** 
 127:Drivers/STM32F4xx_HAL_Driver/Src/stm32f4xx_hal_gpio.c **** #define GPIO_NUMBER           16U
 128:Drivers/STM32F4xx_HAL_Driver/Src/stm32f4xx_hal_gpio.c **** /**
 129:Drivers/STM32F4xx_HAL_Driver/Src/stm32f4xx_hal_gpio.c ****   * @}
 130:Drivers/STM32F4xx_HAL_Driver/Src/stm32f4xx_hal_gpio.c ****   */
 131:Drivers/STM32F4xx_HAL_Driver/Src/stm32f4xx_hal_gpio.c **** /* Private macro -------------------------------------------------------------*/
 132:Drivers/STM32F4xx_HAL_Driver/Src/stm32f4xx_hal_gpio.c **** /* Private variables ---------------------------------------------------------*/
 133:Drivers/STM32F4xx_HAL_Driver/Src/stm32f4xx_hal_gpio.c **** /* Private function prototypes -----------------------------------------------*/
 134:Drivers/STM32F4xx_HAL_Driver/Src/stm32f4xx_hal_gpio.c **** /* Private functions ---------------------------------------------------------*/
 135:Drivers/STM32F4xx_HAL_Driver/Src/stm32f4xx_hal_gpio.c **** /* Exported functions --------------------------------------------------------*/
ARM GAS  /tmp/ccZZ89G2.s 			page 4


 136:Drivers/STM32F4xx_HAL_Driver/Src/stm32f4xx_hal_gpio.c **** /** @defgroup GPIO_Exported_Functions GPIO Exported Functions
 137:Drivers/STM32F4xx_HAL_Driver/Src/stm32f4xx_hal_gpio.c ****   * @{
 138:Drivers/STM32F4xx_HAL_Driver/Src/stm32f4xx_hal_gpio.c ****   */
 139:Drivers/STM32F4xx_HAL_Driver/Src/stm32f4xx_hal_gpio.c **** 
 140:Drivers/STM32F4xx_HAL_Driver/Src/stm32f4xx_hal_gpio.c **** /** @defgroup GPIO_Exported_Functions_Group1 Initialization and de-initialization functions
 141:Drivers/STM32F4xx_HAL_Driver/Src/stm32f4xx_hal_gpio.c ****   *  @brief    Initialization and Configuration functions
 142:Drivers/STM32F4xx_HAL_Driver/Src/stm32f4xx_hal_gpio.c ****   *
 143:Drivers/STM32F4xx_HAL_Driver/Src/stm32f4xx_hal_gpio.c **** @verbatim    
 144:Drivers/STM32F4xx_HAL_Driver/Src/stm32f4xx_hal_gpio.c ****  ===============================================================================
 145:Drivers/STM32F4xx_HAL_Driver/Src/stm32f4xx_hal_gpio.c ****               ##### Initialization and de-initialization functions #####
 146:Drivers/STM32F4xx_HAL_Driver/Src/stm32f4xx_hal_gpio.c ****  ===============================================================================
 147:Drivers/STM32F4xx_HAL_Driver/Src/stm32f4xx_hal_gpio.c ****   [..]
 148:Drivers/STM32F4xx_HAL_Driver/Src/stm32f4xx_hal_gpio.c ****     This section provides functions allowing to initialize and de-initialize the GPIOs
 149:Drivers/STM32F4xx_HAL_Driver/Src/stm32f4xx_hal_gpio.c ****     to be ready for use.
 150:Drivers/STM32F4xx_HAL_Driver/Src/stm32f4xx_hal_gpio.c ****  
 151:Drivers/STM32F4xx_HAL_Driver/Src/stm32f4xx_hal_gpio.c **** @endverbatim
 152:Drivers/STM32F4xx_HAL_Driver/Src/stm32f4xx_hal_gpio.c ****   * @{
 153:Drivers/STM32F4xx_HAL_Driver/Src/stm32f4xx_hal_gpio.c ****   */
 154:Drivers/STM32F4xx_HAL_Driver/Src/stm32f4xx_hal_gpio.c **** 
 155:Drivers/STM32F4xx_HAL_Driver/Src/stm32f4xx_hal_gpio.c **** 
 156:Drivers/STM32F4xx_HAL_Driver/Src/stm32f4xx_hal_gpio.c **** /**
 157:Drivers/STM32F4xx_HAL_Driver/Src/stm32f4xx_hal_gpio.c ****   * @brief  Initializes the GPIOx peripheral according to the specified parameters in the GPIO_Init
 158:Drivers/STM32F4xx_HAL_Driver/Src/stm32f4xx_hal_gpio.c ****   * @param  GPIOx where x can be (A..K) to select the GPIO peripheral for STM32F429X device or
 159:Drivers/STM32F4xx_HAL_Driver/Src/stm32f4xx_hal_gpio.c ****   *                      x can be (A..I) to select the GPIO peripheral for STM32F40XX and STM32F427
 160:Drivers/STM32F4xx_HAL_Driver/Src/stm32f4xx_hal_gpio.c ****   * @param  GPIO_Init pointer to a GPIO_InitTypeDef structure that contains
 161:Drivers/STM32F4xx_HAL_Driver/Src/stm32f4xx_hal_gpio.c ****   *         the configuration information for the specified GPIO peripheral.
 162:Drivers/STM32F4xx_HAL_Driver/Src/stm32f4xx_hal_gpio.c ****   * @retval None
 163:Drivers/STM32F4xx_HAL_Driver/Src/stm32f4xx_hal_gpio.c ****   */
 164:Drivers/STM32F4xx_HAL_Driver/Src/stm32f4xx_hal_gpio.c **** void HAL_GPIO_Init(GPIO_TypeDef  *GPIOx, GPIO_InitTypeDef *GPIO_Init)
 165:Drivers/STM32F4xx_HAL_Driver/Src/stm32f4xx_hal_gpio.c **** {
  34              		.loc 1 165 1
  35              		.cfi_startproc
  36              		@ args = 0, pretend = 0, frame = 32
  37              		@ frame_needed = 1, uses_anonymous_args = 0
  38 0000 80B5     		push	{r7, lr}
  39              	.LCFI0:
  40              		.cfi_def_cfa_offset 8
  41              		.cfi_offset 7, -8
  42              		.cfi_offset 14, -4
  43 0002 88B0     		sub	sp, sp, #32
  44              	.LCFI1:
  45              		.cfi_def_cfa_offset 40
  46 0004 00AF     		add	r7, sp, #0
  47              	.LCFI2:
  48              		.cfi_def_cfa_register 7
  49 0006 7860     		str	r0, [r7, #4]
  50 0008 3960     		str	r1, [r7]
 166:Drivers/STM32F4xx_HAL_Driver/Src/stm32f4xx_hal_gpio.c ****   uint32_t position;
 167:Drivers/STM32F4xx_HAL_Driver/Src/stm32f4xx_hal_gpio.c ****   uint32_t ioposition = 0x00U;
  51              		.loc 1 167 12
  52 000a 0023     		movs	r3, #0
  53 000c 7B61     		str	r3, [r7, #20]
 168:Drivers/STM32F4xx_HAL_Driver/Src/stm32f4xx_hal_gpio.c ****   uint32_t iocurrent = 0x00U;
  54              		.loc 1 168 12
  55 000e 0023     		movs	r3, #0
  56 0010 3B61     		str	r3, [r7, #16]
 169:Drivers/STM32F4xx_HAL_Driver/Src/stm32f4xx_hal_gpio.c ****   uint32_t temp = 0x00U;
ARM GAS  /tmp/ccZZ89G2.s 			page 5


  57              		.loc 1 169 12
  58 0012 0023     		movs	r3, #0
  59 0014 BB61     		str	r3, [r7, #24]
 170:Drivers/STM32F4xx_HAL_Driver/Src/stm32f4xx_hal_gpio.c **** 
 171:Drivers/STM32F4xx_HAL_Driver/Src/stm32f4xx_hal_gpio.c ****   /* Check the parameters */
 172:Drivers/STM32F4xx_HAL_Driver/Src/stm32f4xx_hal_gpio.c ****   assert_param(IS_GPIO_ALL_INSTANCE(GPIOx));
  60              		.loc 1 172 3
  61 0016 7B68     		ldr	r3, [r7, #4]
  62 0018 334A     		ldr	r2, .L30
  63 001a 9342     		cmp	r3, r2
  64 001c 17D0     		beq	.L2
  65              		.loc 1 172 3 is_stmt 0 discriminator 1
  66 001e 7B68     		ldr	r3, [r7, #4]
  67 0020 324A     		ldr	r2, .L30+4
  68 0022 9342     		cmp	r3, r2
  69 0024 13D0     		beq	.L2
  70              		.loc 1 172 3 discriminator 2
  71 0026 7B68     		ldr	r3, [r7, #4]
  72 0028 314A     		ldr	r2, .L30+8
  73 002a 9342     		cmp	r3, r2
  74 002c 0FD0     		beq	.L2
  75              		.loc 1 172 3 discriminator 3
  76 002e 7B68     		ldr	r3, [r7, #4]
  77 0030 304A     		ldr	r2, .L30+12
  78 0032 9342     		cmp	r3, r2
  79 0034 0BD0     		beq	.L2
  80              		.loc 1 172 3 discriminator 4
  81 0036 7B68     		ldr	r3, [r7, #4]
  82 0038 2F4A     		ldr	r2, .L30+16
  83 003a 9342     		cmp	r3, r2
  84 003c 07D0     		beq	.L2
  85              		.loc 1 172 3 discriminator 5
  86 003e 7B68     		ldr	r3, [r7, #4]
  87 0040 2E4A     		ldr	r2, .L30+20
  88 0042 9342     		cmp	r3, r2
  89 0044 03D0     		beq	.L2
  90              		.loc 1 172 3 discriminator 6
  91 0046 AC21     		movs	r1, #172
  92 0048 2D48     		ldr	r0, .L30+24
  93 004a FFF7FEFF 		bl	assert_failed
  94              	.L2:
 173:Drivers/STM32F4xx_HAL_Driver/Src/stm32f4xx_hal_gpio.c ****   assert_param(IS_GPIO_PIN(GPIO_Init->Pin));
  95              		.loc 1 173 3 is_stmt 1
  96 004e 3B68     		ldr	r3, [r7]
  97 0050 1B68     		ldr	r3, [r3]
  98 0052 9BB2     		uxth	r3, r3
  99 0054 002B     		cmp	r3, #0
 100 0056 05D0     		beq	.L3
 101              		.loc 1 173 3 is_stmt 0 discriminator 2
 102 0058 3B68     		ldr	r3, [r7]
 103 005a 1B68     		ldr	r3, [r3]
 104 005c 1B0C     		lsrs	r3, r3, #16
 105 005e 1B04     		lsls	r3, r3, #16
 106 0060 002B     		cmp	r3, #0
 107 0062 03D0     		beq	.L4
 108              	.L3:
 109              		.loc 1 173 3 discriminator 3
ARM GAS  /tmp/ccZZ89G2.s 			page 6


 110 0064 AD21     		movs	r1, #173
 111 0066 2648     		ldr	r0, .L30+24
 112 0068 FFF7FEFF 		bl	assert_failed
 113              	.L4:
 174:Drivers/STM32F4xx_HAL_Driver/Src/stm32f4xx_hal_gpio.c ****   assert_param(IS_GPIO_MODE(GPIO_Init->Mode));
 114              		.loc 1 174 3 is_stmt 1
 115 006c 3B68     		ldr	r3, [r7]
 116 006e 5B68     		ldr	r3, [r3, #4]
 117 0070 002B     		cmp	r3, #0
 118 0072 35D0     		beq	.L5
 119              		.loc 1 174 3 is_stmt 0 discriminator 1
 120 0074 3B68     		ldr	r3, [r7]
 121 0076 5B68     		ldr	r3, [r3, #4]
 122 0078 012B     		cmp	r3, #1
 123 007a 31D0     		beq	.L5
 124              		.loc 1 174 3 discriminator 2
 125 007c 3B68     		ldr	r3, [r7]
 126 007e 5B68     		ldr	r3, [r3, #4]
 127 0080 112B     		cmp	r3, #17
 128 0082 2DD0     		beq	.L5
 129              		.loc 1 174 3 discriminator 3
 130 0084 3B68     		ldr	r3, [r7]
 131 0086 5B68     		ldr	r3, [r3, #4]
 132 0088 022B     		cmp	r3, #2
 133 008a 29D0     		beq	.L5
 134              		.loc 1 174 3 discriminator 4
 135 008c 3B68     		ldr	r3, [r7]
 136 008e 5B68     		ldr	r3, [r3, #4]
 137 0090 122B     		cmp	r3, #18
 138 0092 25D0     		beq	.L5
 139              		.loc 1 174 3 discriminator 5
 140 0094 3B68     		ldr	r3, [r7]
 141 0096 5B68     		ldr	r3, [r3, #4]
 142 0098 B3F5881F 		cmp	r3, #1114112
 143 009c 20D0     		beq	.L5
 144              		.loc 1 174 3 discriminator 6
 145 009e 3B68     		ldr	r3, [r7]
 146 00a0 5B68     		ldr	r3, [r3, #4]
 147 00a2 B3F5041F 		cmp	r3, #2162688
 148 00a6 1BD0     		beq	.L5
 149              		.loc 1 174 3 discriminator 7
 150 00a8 3B68     		ldr	r3, [r7]
 151 00aa 5B68     		ldr	r3, [r3, #4]
 152 00ac B3F5441F 		cmp	r3, #3211264
 153 00b0 16D0     		beq	.L5
 154              		.loc 1 174 3 discriminator 8
 155 00b2 3B68     		ldr	r3, [r7]
 156 00b4 5B68     		ldr	r3, [r3, #4]
 157 00b6 B3F5901F 		cmp	r3, #1179648
 158 00ba 11D0     		beq	.L5
 159              		.loc 1 174 3 discriminator 9
 160 00bc 3B68     		ldr	r3, [r7]
 161 00be 5B68     		ldr	r3, [r3, #4]
 162 00c0 B3F5081F 		cmp	r3, #2228224
 163 00c4 0CD0     		beq	.L5
 164              		.loc 1 174 3 discriminator 10
 165 00c6 3B68     		ldr	r3, [r7]
ARM GAS  /tmp/ccZZ89G2.s 			page 7


 166 00c8 5B68     		ldr	r3, [r3, #4]
 167 00ca B3F5481F 		cmp	r3, #3276800
 168 00ce 07D0     		beq	.L5
 169              		.loc 1 174 3 discriminator 11
 170 00d0 3B68     		ldr	r3, [r7]
 171 00d2 5B68     		ldr	r3, [r3, #4]
 172 00d4 032B     		cmp	r3, #3
 173 00d6 03D0     		beq	.L5
 174              		.loc 1 174 3 discriminator 12
 175 00d8 AE21     		movs	r1, #174
 176 00da 0948     		ldr	r0, .L30+24
 177 00dc FFF7FEFF 		bl	assert_failed
 178              	.L5:
 175:Drivers/STM32F4xx_HAL_Driver/Src/stm32f4xx_hal_gpio.c **** 
 176:Drivers/STM32F4xx_HAL_Driver/Src/stm32f4xx_hal_gpio.c ****   /* Configure the port pins */
 177:Drivers/STM32F4xx_HAL_Driver/Src/stm32f4xx_hal_gpio.c ****   for(position = 0U; position < GPIO_NUMBER; position++)
 179              		.loc 1 177 16 is_stmt 1
 180 00e0 0023     		movs	r3, #0
 181 00e2 FB61     		str	r3, [r7, #28]
 182              		.loc 1 177 3
 183 00e4 0CE2     		b	.L6
 184              	.L31:
 185 00e6 00BF     		.align	2
 186              	.L30:
 187 00e8 00000240 		.word	1073872896
 188 00ec 00040240 		.word	1073873920
 189 00f0 00080240 		.word	1073874944
 190 00f4 000C0240 		.word	1073875968
 191 00f8 00100240 		.word	1073876992
 192 00fc 001C0240 		.word	1073880064
 193 0100 00000000 		.word	.LC0
 194              	.L29:
 178:Drivers/STM32F4xx_HAL_Driver/Src/stm32f4xx_hal_gpio.c ****   {
 179:Drivers/STM32F4xx_HAL_Driver/Src/stm32f4xx_hal_gpio.c ****     /* Get the IO position */
 180:Drivers/STM32F4xx_HAL_Driver/Src/stm32f4xx_hal_gpio.c ****     ioposition = 0x01U << position;
 195              		.loc 1 180 16
 196 0104 0122     		movs	r2, #1
 197 0106 FB69     		ldr	r3, [r7, #28]
 198 0108 02FA03F3 		lsl	r3, r2, r3
 199 010c 7B61     		str	r3, [r7, #20]
 181:Drivers/STM32F4xx_HAL_Driver/Src/stm32f4xx_hal_gpio.c ****     /* Get the current IO position */
 182:Drivers/STM32F4xx_HAL_Driver/Src/stm32f4xx_hal_gpio.c ****     iocurrent = (uint32_t)(GPIO_Init->Pin) & ioposition;
 200              		.loc 1 182 37
 201 010e 3B68     		ldr	r3, [r7]
 202 0110 1B68     		ldr	r3, [r3]
 203              		.loc 1 182 15
 204 0112 7A69     		ldr	r2, [r7, #20]
 205 0114 1340     		ands	r3, r3, r2
 206 0116 3B61     		str	r3, [r7, #16]
 183:Drivers/STM32F4xx_HAL_Driver/Src/stm32f4xx_hal_gpio.c **** 
 184:Drivers/STM32F4xx_HAL_Driver/Src/stm32f4xx_hal_gpio.c ****     if(iocurrent == ioposition)
 207              		.loc 1 184 7
 208 0118 3A69     		ldr	r2, [r7, #16]
 209 011a 7B69     		ldr	r3, [r7, #20]
 210 011c 9A42     		cmp	r2, r3
 211 011e 40F0EC81 		bne	.L7
 185:Drivers/STM32F4xx_HAL_Driver/Src/stm32f4xx_hal_gpio.c ****     {
ARM GAS  /tmp/ccZZ89G2.s 			page 8


 186:Drivers/STM32F4xx_HAL_Driver/Src/stm32f4xx_hal_gpio.c ****       /*--------------------- GPIO Mode Configuration ------------------------*/
 187:Drivers/STM32F4xx_HAL_Driver/Src/stm32f4xx_hal_gpio.c ****       /* In case of Output or Alternate function mode selection */
 188:Drivers/STM32F4xx_HAL_Driver/Src/stm32f4xx_hal_gpio.c ****       if(((GPIO_Init->Mode & GPIO_MODE) == MODE_OUTPUT) || \
 212              		.loc 1 188 21
 213 0122 3B68     		ldr	r3, [r7]
 214 0124 5B68     		ldr	r3, [r3, #4]
 215              		.loc 1 188 28
 216 0126 03F00303 		and	r3, r3, #3
 217              		.loc 1 188 9
 218 012a 012B     		cmp	r3, #1
 219 012c 05D0     		beq	.L8
 189:Drivers/STM32F4xx_HAL_Driver/Src/stm32f4xx_hal_gpio.c ****           (GPIO_Init->Mode & GPIO_MODE) == MODE_AF)
 220              		.loc 1 189 21 discriminator 1
 221 012e 3B68     		ldr	r3, [r7]
 222 0130 5B68     		ldr	r3, [r3, #4]
 223              		.loc 1 189 28 discriminator 1
 224 0132 03F00303 		and	r3, r3, #3
 188:Drivers/STM32F4xx_HAL_Driver/Src/stm32f4xx_hal_gpio.c ****           (GPIO_Init->Mode & GPIO_MODE) == MODE_AF)
 225              		.loc 1 188 57 discriminator 1
 226 0136 022B     		cmp	r3, #2
 227 0138 44D1     		bne	.L9
 228              	.L8:
 190:Drivers/STM32F4xx_HAL_Driver/Src/stm32f4xx_hal_gpio.c ****       {
 191:Drivers/STM32F4xx_HAL_Driver/Src/stm32f4xx_hal_gpio.c ****         /* Check the Speed parameter */
 192:Drivers/STM32F4xx_HAL_Driver/Src/stm32f4xx_hal_gpio.c ****         assert_param(IS_GPIO_SPEED(GPIO_Init->Speed));
 229              		.loc 1 192 9
 230 013a 3B68     		ldr	r3, [r7]
 231 013c DB68     		ldr	r3, [r3, #12]
 232 013e 002B     		cmp	r3, #0
 233 0140 0FD0     		beq	.L10
 234              		.loc 1 192 9 is_stmt 0 discriminator 1
 235 0142 3B68     		ldr	r3, [r7]
 236 0144 DB68     		ldr	r3, [r3, #12]
 237 0146 012B     		cmp	r3, #1
 238 0148 0BD0     		beq	.L10
 239              		.loc 1 192 9 discriminator 2
 240 014a 3B68     		ldr	r3, [r7]
 241 014c DB68     		ldr	r3, [r3, #12]
 242 014e 022B     		cmp	r3, #2
 243 0150 07D0     		beq	.L10
 244              		.loc 1 192 9 discriminator 3
 245 0152 3B68     		ldr	r3, [r7]
 246 0154 DB68     		ldr	r3, [r3, #12]
 247 0156 032B     		cmp	r3, #3
 248 0158 03D0     		beq	.L10
 249              		.loc 1 192 9 discriminator 4
 250 015a C021     		movs	r1, #192
 251 015c 8448     		ldr	r0, .L32
 252 015e FFF7FEFF 		bl	assert_failed
 253              	.L10:
 193:Drivers/STM32F4xx_HAL_Driver/Src/stm32f4xx_hal_gpio.c ****         /* Configure the IO Speed */
 194:Drivers/STM32F4xx_HAL_Driver/Src/stm32f4xx_hal_gpio.c ****         temp = GPIOx->OSPEEDR; 
 254              		.loc 1 194 14 is_stmt 1
 255 0162 7B68     		ldr	r3, [r7, #4]
 256 0164 9B68     		ldr	r3, [r3, #8]
 257 0166 BB61     		str	r3, [r7, #24]
 195:Drivers/STM32F4xx_HAL_Driver/Src/stm32f4xx_hal_gpio.c ****         temp &= ~(GPIO_OSPEEDER_OSPEEDR0 << (position * 2U));
ARM GAS  /tmp/ccZZ89G2.s 			page 9


 258              		.loc 1 195 55
 259 0168 FB69     		ldr	r3, [r7, #28]
 260 016a 5B00     		lsls	r3, r3, #1
 261              		.loc 1 195 42
 262 016c 0322     		movs	r2, #3
 263 016e 02FA03F3 		lsl	r3, r2, r3
 264              		.loc 1 195 17
 265 0172 DB43     		mvns	r3, r3
 266              		.loc 1 195 14
 267 0174 BA69     		ldr	r2, [r7, #24]
 268 0176 1340     		ands	r3, r3, r2
 269 0178 BB61     		str	r3, [r7, #24]
 196:Drivers/STM32F4xx_HAL_Driver/Src/stm32f4xx_hal_gpio.c ****         temp |= (GPIO_Init->Speed << (position * 2U));
 270              		.loc 1 196 27
 271 017a 3B68     		ldr	r3, [r7]
 272 017c DA68     		ldr	r2, [r3, #12]
 273              		.loc 1 196 48
 274 017e FB69     		ldr	r3, [r7, #28]
 275 0180 5B00     		lsls	r3, r3, #1
 276              		.loc 1 196 35
 277 0182 02FA03F3 		lsl	r3, r2, r3
 278              		.loc 1 196 14
 279 0186 BA69     		ldr	r2, [r7, #24]
 280 0188 1343     		orrs	r3, r3, r2
 281 018a BB61     		str	r3, [r7, #24]
 197:Drivers/STM32F4xx_HAL_Driver/Src/stm32f4xx_hal_gpio.c ****         GPIOx->OSPEEDR = temp;
 282              		.loc 1 197 24
 283 018c 7B68     		ldr	r3, [r7, #4]
 284 018e BA69     		ldr	r2, [r7, #24]
 285 0190 9A60     		str	r2, [r3, #8]
 198:Drivers/STM32F4xx_HAL_Driver/Src/stm32f4xx_hal_gpio.c **** 
 199:Drivers/STM32F4xx_HAL_Driver/Src/stm32f4xx_hal_gpio.c ****         /* Configure the IO Output Type */
 200:Drivers/STM32F4xx_HAL_Driver/Src/stm32f4xx_hal_gpio.c ****         temp = GPIOx->OTYPER;
 286              		.loc 1 200 14
 287 0192 7B68     		ldr	r3, [r7, #4]
 288 0194 5B68     		ldr	r3, [r3, #4]
 289 0196 BB61     		str	r3, [r7, #24]
 201:Drivers/STM32F4xx_HAL_Driver/Src/stm32f4xx_hal_gpio.c ****         temp &= ~(GPIO_OTYPER_OT_0 << position) ;
 290              		.loc 1 201 36
 291 0198 0122     		movs	r2, #1
 292 019a FB69     		ldr	r3, [r7, #28]
 293 019c 02FA03F3 		lsl	r3, r2, r3
 294              		.loc 1 201 17
 295 01a0 DB43     		mvns	r3, r3
 296              		.loc 1 201 14
 297 01a2 BA69     		ldr	r2, [r7, #24]
 298 01a4 1340     		ands	r3, r3, r2
 299 01a6 BB61     		str	r3, [r7, #24]
 202:Drivers/STM32F4xx_HAL_Driver/Src/stm32f4xx_hal_gpio.c ****         temp |= (((GPIO_Init->Mode & OUTPUT_TYPE) >> OUTPUT_TYPE_Pos) << position);
 300              		.loc 1 202 29
 301 01a8 3B68     		ldr	r3, [r7]
 302 01aa 5B68     		ldr	r3, [r3, #4]
 303              		.loc 1 202 51
 304 01ac 1B09     		lsrs	r3, r3, #4
 305 01ae 03F00102 		and	r2, r3, #1
 306              		.loc 1 202 71
 307 01b2 FB69     		ldr	r3, [r7, #28]
ARM GAS  /tmp/ccZZ89G2.s 			page 10


 308 01b4 02FA03F3 		lsl	r3, r2, r3
 309              		.loc 1 202 14
 310 01b8 BA69     		ldr	r2, [r7, #24]
 311 01ba 1343     		orrs	r3, r3, r2
 312 01bc BB61     		str	r3, [r7, #24]
 203:Drivers/STM32F4xx_HAL_Driver/Src/stm32f4xx_hal_gpio.c ****         GPIOx->OTYPER = temp;
 313              		.loc 1 203 23
 314 01be 7B68     		ldr	r3, [r7, #4]
 315 01c0 BA69     		ldr	r2, [r7, #24]
 316 01c2 5A60     		str	r2, [r3, #4]
 317              	.L9:
 204:Drivers/STM32F4xx_HAL_Driver/Src/stm32f4xx_hal_gpio.c ****        }
 205:Drivers/STM32F4xx_HAL_Driver/Src/stm32f4xx_hal_gpio.c **** 
 206:Drivers/STM32F4xx_HAL_Driver/Src/stm32f4xx_hal_gpio.c ****       if((GPIO_Init->Mode & GPIO_MODE) != MODE_ANALOG)
 318              		.loc 1 206 20
 319 01c4 3B68     		ldr	r3, [r7]
 320 01c6 5B68     		ldr	r3, [r3, #4]
 321              		.loc 1 206 27
 322 01c8 03F00303 		and	r3, r3, #3
 323              		.loc 1 206 9
 324 01cc 032B     		cmp	r3, #3
 325 01ce 27D0     		beq	.L11
 207:Drivers/STM32F4xx_HAL_Driver/Src/stm32f4xx_hal_gpio.c ****       {
 208:Drivers/STM32F4xx_HAL_Driver/Src/stm32f4xx_hal_gpio.c ****         /* Check the parameters */
 209:Drivers/STM32F4xx_HAL_Driver/Src/stm32f4xx_hal_gpio.c ****         assert_param(IS_GPIO_PULL(GPIO_Init->Pull));
 326              		.loc 1 209 9
 327 01d0 3B68     		ldr	r3, [r7]
 328 01d2 9B68     		ldr	r3, [r3, #8]
 329 01d4 002B     		cmp	r3, #0
 330 01d6 0BD0     		beq	.L12
 331              		.loc 1 209 9 is_stmt 0 discriminator 1
 332 01d8 3B68     		ldr	r3, [r7]
 333 01da 9B68     		ldr	r3, [r3, #8]
 334 01dc 012B     		cmp	r3, #1
 335 01de 07D0     		beq	.L12
 336              		.loc 1 209 9 discriminator 2
 337 01e0 3B68     		ldr	r3, [r7]
 338 01e2 9B68     		ldr	r3, [r3, #8]
 339 01e4 022B     		cmp	r3, #2
 340 01e6 03D0     		beq	.L12
 341              		.loc 1 209 9 discriminator 3
 342 01e8 D121     		movs	r1, #209
 343 01ea 6148     		ldr	r0, .L32
 344 01ec FFF7FEFF 		bl	assert_failed
 345              	.L12:
 210:Drivers/STM32F4xx_HAL_Driver/Src/stm32f4xx_hal_gpio.c ****         
 211:Drivers/STM32F4xx_HAL_Driver/Src/stm32f4xx_hal_gpio.c ****         /* Activate the Pull-up or Pull down resistor for the current IO */
 212:Drivers/STM32F4xx_HAL_Driver/Src/stm32f4xx_hal_gpio.c ****         temp = GPIOx->PUPDR;
 346              		.loc 1 212 14 is_stmt 1
 347 01f0 7B68     		ldr	r3, [r7, #4]
 348 01f2 DB68     		ldr	r3, [r3, #12]
 349 01f4 BB61     		str	r3, [r7, #24]
 213:Drivers/STM32F4xx_HAL_Driver/Src/stm32f4xx_hal_gpio.c ****         temp &= ~(GPIO_PUPDR_PUPDR0 << (position * 2U));
 350              		.loc 1 213 50
 351 01f6 FB69     		ldr	r3, [r7, #28]
 352 01f8 5B00     		lsls	r3, r3, #1
 353              		.loc 1 213 37
ARM GAS  /tmp/ccZZ89G2.s 			page 11


 354 01fa 0322     		movs	r2, #3
 355 01fc 02FA03F3 		lsl	r3, r2, r3
 356              		.loc 1 213 17
 357 0200 DB43     		mvns	r3, r3
 358              		.loc 1 213 14
 359 0202 BA69     		ldr	r2, [r7, #24]
 360 0204 1340     		ands	r3, r3, r2
 361 0206 BB61     		str	r3, [r7, #24]
 214:Drivers/STM32F4xx_HAL_Driver/Src/stm32f4xx_hal_gpio.c ****         temp |= ((GPIO_Init->Pull) << (position * 2U));
 362              		.loc 1 214 28
 363 0208 3B68     		ldr	r3, [r7]
 364 020a 9A68     		ldr	r2, [r3, #8]
 365              		.loc 1 214 49
 366 020c FB69     		ldr	r3, [r7, #28]
 367 020e 5B00     		lsls	r3, r3, #1
 368              		.loc 1 214 36
 369 0210 02FA03F3 		lsl	r3, r2, r3
 370              		.loc 1 214 14
 371 0214 BA69     		ldr	r2, [r7, #24]
 372 0216 1343     		orrs	r3, r3, r2
 373 0218 BB61     		str	r3, [r7, #24]
 215:Drivers/STM32F4xx_HAL_Driver/Src/stm32f4xx_hal_gpio.c ****         GPIOx->PUPDR = temp;
 374              		.loc 1 215 22
 375 021a 7B68     		ldr	r3, [r7, #4]
 376 021c BA69     		ldr	r2, [r7, #24]
 377 021e DA60     		str	r2, [r3, #12]
 378              	.L11:
 216:Drivers/STM32F4xx_HAL_Driver/Src/stm32f4xx_hal_gpio.c ****       }
 217:Drivers/STM32F4xx_HAL_Driver/Src/stm32f4xx_hal_gpio.c **** 
 218:Drivers/STM32F4xx_HAL_Driver/Src/stm32f4xx_hal_gpio.c ****       /* In case of Alternate function mode selection */
 219:Drivers/STM32F4xx_HAL_Driver/Src/stm32f4xx_hal_gpio.c ****       if((GPIO_Init->Mode & GPIO_MODE) == MODE_AF)
 379              		.loc 1 219 20
 380 0220 3B68     		ldr	r3, [r7]
 381 0222 5B68     		ldr	r3, [r3, #4]
 382              		.loc 1 219 27
 383 0224 03F00303 		and	r3, r3, #3
 384              		.loc 1 219 9
 385 0228 022B     		cmp	r3, #2
 386 022a 40F0A380 		bne	.L13
 220:Drivers/STM32F4xx_HAL_Driver/Src/stm32f4xx_hal_gpio.c ****       {
 221:Drivers/STM32F4xx_HAL_Driver/Src/stm32f4xx_hal_gpio.c ****         /* Check the Alternate function parameter */
 222:Drivers/STM32F4xx_HAL_Driver/Src/stm32f4xx_hal_gpio.c ****         assert_param(IS_GPIO_AF(GPIO_Init->Alternate));
 387              		.loc 1 222 9
 388 022e 3B68     		ldr	r3, [r7]
 389 0230 1B69     		ldr	r3, [r3, #16]
 390 0232 002B     		cmp	r3, #0
 391 0234 77D0     		beq	.L14
 392              		.loc 1 222 9 is_stmt 0 discriminator 1
 393 0236 3B68     		ldr	r3, [r7]
 394 0238 1B69     		ldr	r3, [r3, #16]
 395 023a 092B     		cmp	r3, #9
 396 023c 73D0     		beq	.L14
 397              		.loc 1 222 9 discriminator 2
 398 023e 3B68     		ldr	r3, [r7]
 399 0240 1B69     		ldr	r3, [r3, #16]
 400 0242 002B     		cmp	r3, #0
 401 0244 6FD0     		beq	.L14
ARM GAS  /tmp/ccZZ89G2.s 			page 12


 402              		.loc 1 222 9 discriminator 3
 403 0246 3B68     		ldr	r3, [r7]
 404 0248 1B69     		ldr	r3, [r3, #16]
 405 024a 002B     		cmp	r3, #0
 406 024c 6BD0     		beq	.L14
 407              		.loc 1 222 9 discriminator 4
 408 024e 3B68     		ldr	r3, [r7]
 409 0250 1B69     		ldr	r3, [r3, #16]
 410 0252 002B     		cmp	r3, #0
 411 0254 67D0     		beq	.L14
 412              		.loc 1 222 9 discriminator 5
 413 0256 3B68     		ldr	r3, [r7]
 414 0258 1B69     		ldr	r3, [r3, #16]
 415 025a 002B     		cmp	r3, #0
 416 025c 63D0     		beq	.L14
 417              		.loc 1 222 9 discriminator 6
 418 025e 3B68     		ldr	r3, [r7]
 419 0260 1B69     		ldr	r3, [r3, #16]
 420 0262 012B     		cmp	r3, #1
 421 0264 5FD0     		beq	.L14
 422              		.loc 1 222 9 discriminator 7
 423 0266 3B68     		ldr	r3, [r7]
 424 0268 1B69     		ldr	r3, [r3, #16]
 425 026a 012B     		cmp	r3, #1
 426 026c 5BD0     		beq	.L14
 427              		.loc 1 222 9 discriminator 8
 428 026e 3B68     		ldr	r3, [r7]
 429 0270 1B69     		ldr	r3, [r3, #16]
 430 0272 022B     		cmp	r3, #2
 431 0274 57D0     		beq	.L14
 432              		.loc 1 222 9 discriminator 9
 433 0276 3B68     		ldr	r3, [r7]
 434 0278 1B69     		ldr	r3, [r3, #16]
 435 027a 022B     		cmp	r3, #2
 436 027c 53D0     		beq	.L14
 437              		.loc 1 222 9 discriminator 10
 438 027e 3B68     		ldr	r3, [r7]
 439 0280 1B69     		ldr	r3, [r3, #16]
 440 0282 022B     		cmp	r3, #2
 441 0284 4FD0     		beq	.L14
 442              		.loc 1 222 9 discriminator 11
 443 0286 3B68     		ldr	r3, [r7]
 444 0288 1B69     		ldr	r3, [r3, #16]
 445 028a 042B     		cmp	r3, #4
 446 028c 4BD0     		beq	.L14
 447              		.loc 1 222 9 discriminator 12
 448 028e 3B68     		ldr	r3, [r7]
 449 0290 1B69     		ldr	r3, [r3, #16]
 450 0292 042B     		cmp	r3, #4
 451 0294 47D0     		beq	.L14
 452              		.loc 1 222 9 discriminator 13
 453 0296 3B68     		ldr	r3, [r7]
 454 0298 1B69     		ldr	r3, [r3, #16]
 455 029a 042B     		cmp	r3, #4
 456 029c 43D0     		beq	.L14
 457              		.loc 1 222 9 discriminator 14
 458 029e 3B68     		ldr	r3, [r7]
ARM GAS  /tmp/ccZZ89G2.s 			page 13


 459 02a0 1B69     		ldr	r3, [r3, #16]
 460 02a2 052B     		cmp	r3, #5
 461 02a4 3FD0     		beq	.L14
 462              		.loc 1 222 9 discriminator 15
 463 02a6 3B68     		ldr	r3, [r7]
 464 02a8 1B69     		ldr	r3, [r3, #16]
 465 02aa 052B     		cmp	r3, #5
 466 02ac 3BD0     		beq	.L14
 467              		.loc 1 222 9 discriminator 16
 468 02ae 3B68     		ldr	r3, [r7]
 469 02b0 1B69     		ldr	r3, [r3, #16]
 470 02b2 052B     		cmp	r3, #5
 471 02b4 37D0     		beq	.L14
 472              		.loc 1 222 9 discriminator 17
 473 02b6 3B68     		ldr	r3, [r7]
 474 02b8 1B69     		ldr	r3, [r3, #16]
 475 02ba 062B     		cmp	r3, #6
 476 02bc 33D0     		beq	.L14
 477              		.loc 1 222 9 discriminator 18
 478 02be 3B68     		ldr	r3, [r7]
 479 02c0 1B69     		ldr	r3, [r3, #16]
 480 02c2 062B     		cmp	r3, #6
 481 02c4 2FD0     		beq	.L14
 482              		.loc 1 222 9 discriminator 19
 483 02c6 3B68     		ldr	r3, [r7]
 484 02c8 1B69     		ldr	r3, [r3, #16]
 485 02ca 052B     		cmp	r3, #5
 486 02cc 2BD0     		beq	.L14
 487              		.loc 1 222 9 discriminator 20
 488 02ce 3B68     		ldr	r3, [r7]
 489 02d0 1B69     		ldr	r3, [r3, #16]
 490 02d2 062B     		cmp	r3, #6
 491 02d4 27D0     		beq	.L14
 492              		.loc 1 222 9 discriminator 21
 493 02d6 3B68     		ldr	r3, [r7]
 494 02d8 1B69     		ldr	r3, [r3, #16]
 495 02da 072B     		cmp	r3, #7
 496 02dc 23D0     		beq	.L14
 497              		.loc 1 222 9 discriminator 22
 498 02de 3B68     		ldr	r3, [r7]
 499 02e0 1B69     		ldr	r3, [r3, #16]
 500 02e2 072B     		cmp	r3, #7
 501 02e4 1FD0     		beq	.L14
 502              		.loc 1 222 9 discriminator 23
 503 02e6 3B68     		ldr	r3, [r7]
 504 02e8 1B69     		ldr	r3, [r3, #16]
 505 02ea 072B     		cmp	r3, #7
 506 02ec 1BD0     		beq	.L14
 507              		.loc 1 222 9 discriminator 24
 508 02ee 3B68     		ldr	r3, [r7]
 509 02f0 1B69     		ldr	r3, [r3, #16]
 510 02f2 082B     		cmp	r3, #8
 511 02f4 17D0     		beq	.L14
 512              		.loc 1 222 9 discriminator 25
 513 02f6 3B68     		ldr	r3, [r7]
 514 02f8 1B69     		ldr	r3, [r3, #16]
 515 02fa 0A2B     		cmp	r3, #10
ARM GAS  /tmp/ccZZ89G2.s 			page 14


 516 02fc 13D0     		beq	.L14
 517              		.loc 1 222 9 discriminator 26
 518 02fe 3B68     		ldr	r3, [r7]
 519 0300 1B69     		ldr	r3, [r3, #16]
 520 0302 092B     		cmp	r3, #9
 521 0304 0FD0     		beq	.L14
 522              		.loc 1 222 9 discriminator 27
 523 0306 3B68     		ldr	r3, [r7]
 524 0308 1B69     		ldr	r3, [r3, #16]
 525 030a 092B     		cmp	r3, #9
 526 030c 0BD0     		beq	.L14
 527              		.loc 1 222 9 discriminator 28
 528 030e 3B68     		ldr	r3, [r7]
 529 0310 1B69     		ldr	r3, [r3, #16]
 530 0312 0C2B     		cmp	r3, #12
 531 0314 07D0     		beq	.L14
 532              		.loc 1 222 9 discriminator 29
 533 0316 3B68     		ldr	r3, [r7]
 534 0318 1B69     		ldr	r3, [r3, #16]
 535 031a 0F2B     		cmp	r3, #15
 536 031c 03D0     		beq	.L14
 537              		.loc 1 222 9 discriminator 30
 538 031e DE21     		movs	r1, #222
 539 0320 1348     		ldr	r0, .L32
 540 0322 FFF7FEFF 		bl	assert_failed
 541              	.L14:
 223:Drivers/STM32F4xx_HAL_Driver/Src/stm32f4xx_hal_gpio.c ****         /* Configure Alternate function mapped with the current IO */
 224:Drivers/STM32F4xx_HAL_Driver/Src/stm32f4xx_hal_gpio.c ****         temp = GPIOx->AFR[position >> 3U];
 542              		.loc 1 224 36 is_stmt 1
 543 0326 FB69     		ldr	r3, [r7, #28]
 544 0328 DA08     		lsrs	r2, r3, #3
 545              		.loc 1 224 14
 546 032a 7B68     		ldr	r3, [r7, #4]
 547 032c 0832     		adds	r2, r2, #8
 548 032e 53F82230 		ldr	r3, [r3, r2, lsl #2]
 549 0332 BB61     		str	r3, [r7, #24]
 225:Drivers/STM32F4xx_HAL_Driver/Src/stm32f4xx_hal_gpio.c ****         temp &= ~(0xFU << ((uint32_t)(position & 0x07U) * 4U)) ;
 550              		.loc 1 225 28
 551 0334 FB69     		ldr	r3, [r7, #28]
 552 0336 03F00703 		and	r3, r3, #7
 553              		.loc 1 225 57
 554 033a 9B00     		lsls	r3, r3, #2
 555              		.loc 1 225 24
 556 033c 0F22     		movs	r2, #15
 557 033e 02FA03F3 		lsl	r3, r2, r3
 558              		.loc 1 225 17
 559 0342 DB43     		mvns	r3, r3
 560              		.loc 1 225 14
 561 0344 BA69     		ldr	r2, [r7, #24]
 562 0346 1340     		ands	r3, r3, r2
 563 0348 BB61     		str	r3, [r7, #24]
 226:Drivers/STM32F4xx_HAL_Driver/Src/stm32f4xx_hal_gpio.c ****         temp |= ((uint32_t)(GPIO_Init->Alternate) << (((uint32_t)position & 0x07U) * 4U));
 564              		.loc 1 226 38
 565 034a 3B68     		ldr	r3, [r7]
 566 034c 1A69     		ldr	r2, [r3, #16]
 567              		.loc 1 226 75
 568 034e FB69     		ldr	r3, [r7, #28]
ARM GAS  /tmp/ccZZ89G2.s 			page 15


 569 0350 03F00703 		and	r3, r3, #7
 570              		.loc 1 226 84
 571 0354 9B00     		lsls	r3, r3, #2
 572              		.loc 1 226 51
 573 0356 02FA03F3 		lsl	r3, r2, r3
 574              		.loc 1 226 14
 575 035a BA69     		ldr	r2, [r7, #24]
 576 035c 1343     		orrs	r3, r3, r2
 577 035e BB61     		str	r3, [r7, #24]
 227:Drivers/STM32F4xx_HAL_Driver/Src/stm32f4xx_hal_gpio.c ****         GPIOx->AFR[position >> 3U] = temp;
 578              		.loc 1 227 29
 579 0360 FB69     		ldr	r3, [r7, #28]
 580 0362 DA08     		lsrs	r2, r3, #3
 581              		.loc 1 227 36
 582 0364 7B68     		ldr	r3, [r7, #4]
 583 0366 0832     		adds	r2, r2, #8
 584 0368 B969     		ldr	r1, [r7, #24]
 585 036a 43F82210 		str	r1, [r3, r2, lsl #2]
 586 036e 01E0     		b	.L33
 587              	.L34:
 588              		.align	2
 589              	.L32:
 590 0370 00000000 		.word	.LC0
 591              	.L33:
 592              	.L13:
 228:Drivers/STM32F4xx_HAL_Driver/Src/stm32f4xx_hal_gpio.c ****       }
 229:Drivers/STM32F4xx_HAL_Driver/Src/stm32f4xx_hal_gpio.c **** 
 230:Drivers/STM32F4xx_HAL_Driver/Src/stm32f4xx_hal_gpio.c ****       /* Configure IO Direction mode (Input, Output, Alternate or Analog) */
 231:Drivers/STM32F4xx_HAL_Driver/Src/stm32f4xx_hal_gpio.c ****       temp = GPIOx->MODER;
 593              		.loc 1 231 12
 594 0374 7B68     		ldr	r3, [r7, #4]
 595 0376 1B68     		ldr	r3, [r3]
 596 0378 BB61     		str	r3, [r7, #24]
 232:Drivers/STM32F4xx_HAL_Driver/Src/stm32f4xx_hal_gpio.c ****       temp &= ~(GPIO_MODER_MODER0 << (position * 2U));
 597              		.loc 1 232 48
 598 037a FB69     		ldr	r3, [r7, #28]
 599 037c 5B00     		lsls	r3, r3, #1
 600              		.loc 1 232 35
 601 037e 0322     		movs	r2, #3
 602 0380 02FA03F3 		lsl	r3, r2, r3
 603              		.loc 1 232 15
 604 0384 DB43     		mvns	r3, r3
 605              		.loc 1 232 12
 606 0386 BA69     		ldr	r2, [r7, #24]
 607 0388 1340     		ands	r3, r3, r2
 608 038a BB61     		str	r3, [r7, #24]
 233:Drivers/STM32F4xx_HAL_Driver/Src/stm32f4xx_hal_gpio.c ****       temp |= ((GPIO_Init->Mode & GPIO_MODE) << (position * 2U));
 609              		.loc 1 233 26
 610 038c 3B68     		ldr	r3, [r7]
 611 038e 5B68     		ldr	r3, [r3, #4]
 612              		.loc 1 233 33
 613 0390 03F00302 		and	r2, r3, #3
 614              		.loc 1 233 59
 615 0394 FB69     		ldr	r3, [r7, #28]
 616 0396 5B00     		lsls	r3, r3, #1
 617              		.loc 1 233 46
 618 0398 02FA03F3 		lsl	r3, r2, r3
ARM GAS  /tmp/ccZZ89G2.s 			page 16


 619              		.loc 1 233 12
 620 039c BA69     		ldr	r2, [r7, #24]
 621 039e 1343     		orrs	r3, r3, r2
 622 03a0 BB61     		str	r3, [r7, #24]
 234:Drivers/STM32F4xx_HAL_Driver/Src/stm32f4xx_hal_gpio.c ****       GPIOx->MODER = temp;
 623              		.loc 1 234 20
 624 03a2 7B68     		ldr	r3, [r7, #4]
 625 03a4 BA69     		ldr	r2, [r7, #24]
 626 03a6 1A60     		str	r2, [r3]
 235:Drivers/STM32F4xx_HAL_Driver/Src/stm32f4xx_hal_gpio.c **** 
 236:Drivers/STM32F4xx_HAL_Driver/Src/stm32f4xx_hal_gpio.c ****       /*--------------------- EXTI Mode Configuration ------------------------*/
 237:Drivers/STM32F4xx_HAL_Driver/Src/stm32f4xx_hal_gpio.c ****       /* Configure the External Interrupt or event for the current IO */
 238:Drivers/STM32F4xx_HAL_Driver/Src/stm32f4xx_hal_gpio.c ****       if((GPIO_Init->Mode & EXTI_MODE) != 0x00U)
 627              		.loc 1 238 20
 628 03a8 3B68     		ldr	r3, [r7]
 629 03aa 5B68     		ldr	r3, [r3, #4]
 630              		.loc 1 238 27
 631 03ac 03F44033 		and	r3, r3, #196608
 632              		.loc 1 238 9
 633 03b0 002B     		cmp	r3, #0
 634 03b2 00F0A280 		beq	.L7
 635              	.LBB2:
 239:Drivers/STM32F4xx_HAL_Driver/Src/stm32f4xx_hal_gpio.c ****       {
 240:Drivers/STM32F4xx_HAL_Driver/Src/stm32f4xx_hal_gpio.c ****         /* Enable SYSCFG Clock */
 241:Drivers/STM32F4xx_HAL_Driver/Src/stm32f4xx_hal_gpio.c ****         __HAL_RCC_SYSCFG_CLK_ENABLE();
 636              		.loc 1 241 9
 637 03b6 0023     		movs	r3, #0
 638 03b8 FB60     		str	r3, [r7, #12]
 639 03ba 564B     		ldr	r3, .L35
 640 03bc 5B6C     		ldr	r3, [r3, #68]
 641 03be 554A     		ldr	r2, .L35
 642 03c0 43F48043 		orr	r3, r3, #16384
 643 03c4 5364     		str	r3, [r2, #68]
 644 03c6 534B     		ldr	r3, .L35
 645 03c8 5B6C     		ldr	r3, [r3, #68]
 646 03ca 03F48043 		and	r3, r3, #16384
 647 03ce FB60     		str	r3, [r7, #12]
 648 03d0 FB68     		ldr	r3, [r7, #12]
 649              	.LBE2:
 242:Drivers/STM32F4xx_HAL_Driver/Src/stm32f4xx_hal_gpio.c **** 
 243:Drivers/STM32F4xx_HAL_Driver/Src/stm32f4xx_hal_gpio.c ****         temp = SYSCFG->EXTICR[position >> 2U];
 650              		.loc 1 243 22
 651 03d2 514A     		ldr	r2, .L35+4
 652              		.loc 1 243 40
 653 03d4 FB69     		ldr	r3, [r7, #28]
 654 03d6 9B08     		lsrs	r3, r3, #2
 655              		.loc 1 243 14
 656 03d8 0233     		adds	r3, r3, #2
 657 03da 52F82330 		ldr	r3, [r2, r3, lsl #2]
 658 03de BB61     		str	r3, [r7, #24]
 244:Drivers/STM32F4xx_HAL_Driver/Src/stm32f4xx_hal_gpio.c ****         temp &= ~(0x0FU << (4U * (position & 0x03U)));
 659              		.loc 1 244 44
 660 03e0 FB69     		ldr	r3, [r7, #28]
 661 03e2 03F00303 		and	r3, r3, #3
 662              		.loc 1 244 32
 663 03e6 9B00     		lsls	r3, r3, #2
 664              		.loc 1 244 25
ARM GAS  /tmp/ccZZ89G2.s 			page 17


 665 03e8 0F22     		movs	r2, #15
 666 03ea 02FA03F3 		lsl	r3, r2, r3
 667              		.loc 1 244 17
 668 03ee DB43     		mvns	r3, r3
 669              		.loc 1 244 14
 670 03f0 BA69     		ldr	r2, [r7, #24]
 671 03f2 1340     		ands	r3, r3, r2
 672 03f4 BB61     		str	r3, [r7, #24]
 245:Drivers/STM32F4xx_HAL_Driver/Src/stm32f4xx_hal_gpio.c ****         temp |= ((uint32_t)(GPIO_GET_INDEX(GPIOx)) << (4U * (position & 0x03U)));
 673              		.loc 1 245 18
 674 03f6 7B68     		ldr	r3, [r7, #4]
 675 03f8 484A     		ldr	r2, .L35+8
 676 03fa 9342     		cmp	r3, r2
 677 03fc 19D0     		beq	.L15
 678              		.loc 1 245 29 discriminator 1
 679 03fe 7B68     		ldr	r3, [r7, #4]
 680 0400 474A     		ldr	r2, .L35+12
 681 0402 9342     		cmp	r3, r2
 682 0404 13D0     		beq	.L16
 683              		.loc 1 245 29 is_stmt 0 discriminator 3
 684 0406 7B68     		ldr	r3, [r7, #4]
 685 0408 464A     		ldr	r2, .L35+16
 686 040a 9342     		cmp	r3, r2
 687 040c 0DD0     		beq	.L17
 688              		.loc 1 245 29 discriminator 5
 689 040e 7B68     		ldr	r3, [r7, #4]
 690 0410 454A     		ldr	r2, .L35+20
 691 0412 9342     		cmp	r3, r2
 692 0414 07D0     		beq	.L18
 693              		.loc 1 245 29 discriminator 7
 694 0416 7B68     		ldr	r3, [r7, #4]
 695 0418 444A     		ldr	r2, .L35+24
 696 041a 9342     		cmp	r3, r2
 697 041c 01D1     		bne	.L19
 698              		.loc 1 245 29 discriminator 9
 699 041e 0423     		movs	r3, #4
 700 0420 08E0     		b	.L24
 701              	.L19:
 702              		.loc 1 245 29 discriminator 10
 703 0422 0723     		movs	r3, #7
 704 0424 06E0     		b	.L24
 705              	.L18:
 706              		.loc 1 245 29 discriminator 8
 707 0426 0323     		movs	r3, #3
 708 0428 04E0     		b	.L24
 709              	.L17:
 710              		.loc 1 245 29 discriminator 6
 711 042a 0223     		movs	r3, #2
 712 042c 02E0     		b	.L24
 713              	.L16:
 714              		.loc 1 245 29 discriminator 4
 715 042e 0123     		movs	r3, #1
 716 0430 00E0     		b	.L24
 717              	.L15:
 718              		.loc 1 245 18 is_stmt 1 discriminator 2
 719 0432 0023     		movs	r3, #0
 720              	.L24:
ARM GAS  /tmp/ccZZ89G2.s 			page 18


 721              		.loc 1 245 71 discriminator 20
 722 0434 FA69     		ldr	r2, [r7, #28]
 723 0436 02F00302 		and	r2, r2, #3
 724              		.loc 1 245 59 discriminator 20
 725 043a 9200     		lsls	r2, r2, #2
 726              		.loc 1 245 52 discriminator 20
 727 043c 9340     		lsls	r3, r3, r2
 728              		.loc 1 245 14 discriminator 20
 729 043e BA69     		ldr	r2, [r7, #24]
 730 0440 1343     		orrs	r3, r3, r2
 731 0442 BB61     		str	r3, [r7, #24]
 246:Drivers/STM32F4xx_HAL_Driver/Src/stm32f4xx_hal_gpio.c ****         SYSCFG->EXTICR[position >> 2U] = temp;
 732              		.loc 1 246 15 discriminator 20
 733 0444 3449     		ldr	r1, .L35+4
 734              		.loc 1 246 33 discriminator 20
 735 0446 FB69     		ldr	r3, [r7, #28]
 736 0448 9B08     		lsrs	r3, r3, #2
 737              		.loc 1 246 40 discriminator 20
 738 044a 0233     		adds	r3, r3, #2
 739 044c BA69     		ldr	r2, [r7, #24]
 740 044e 41F82320 		str	r2, [r1, r3, lsl #2]
 247:Drivers/STM32F4xx_HAL_Driver/Src/stm32f4xx_hal_gpio.c **** 
 248:Drivers/STM32F4xx_HAL_Driver/Src/stm32f4xx_hal_gpio.c ****         /* Clear Rising Falling edge configuration */
 249:Drivers/STM32F4xx_HAL_Driver/Src/stm32f4xx_hal_gpio.c ****         temp = EXTI->RTSR;
 741              		.loc 1 249 20 discriminator 20
 742 0452 374B     		ldr	r3, .L35+28
 743              		.loc 1 249 14 discriminator 20
 744 0454 9B68     		ldr	r3, [r3, #8]
 745 0456 BB61     		str	r3, [r7, #24]
 250:Drivers/STM32F4xx_HAL_Driver/Src/stm32f4xx_hal_gpio.c ****         temp &= ~((uint32_t)iocurrent);
 746              		.loc 1 250 17 discriminator 20
 747 0458 3B69     		ldr	r3, [r7, #16]
 748 045a DB43     		mvns	r3, r3
 749              		.loc 1 250 14 discriminator 20
 750 045c BA69     		ldr	r2, [r7, #24]
 751 045e 1340     		ands	r3, r3, r2
 752 0460 BB61     		str	r3, [r7, #24]
 251:Drivers/STM32F4xx_HAL_Driver/Src/stm32f4xx_hal_gpio.c ****         if((GPIO_Init->Mode & TRIGGER_RISING) != 0x00U)
 753              		.loc 1 251 22 discriminator 20
 754 0462 3B68     		ldr	r3, [r7]
 755 0464 5B68     		ldr	r3, [r3, #4]
 756              		.loc 1 251 29 discriminator 20
 757 0466 03F48013 		and	r3, r3, #1048576
 758              		.loc 1 251 11 discriminator 20
 759 046a 002B     		cmp	r3, #0
 760 046c 03D0     		beq	.L25
 252:Drivers/STM32F4xx_HAL_Driver/Src/stm32f4xx_hal_gpio.c ****         {
 253:Drivers/STM32F4xx_HAL_Driver/Src/stm32f4xx_hal_gpio.c ****           temp |= iocurrent;
 761              		.loc 1 253 16
 762 046e BA69     		ldr	r2, [r7, #24]
 763 0470 3B69     		ldr	r3, [r7, #16]
 764 0472 1343     		orrs	r3, r3, r2
 765 0474 BB61     		str	r3, [r7, #24]
 766              	.L25:
 254:Drivers/STM32F4xx_HAL_Driver/Src/stm32f4xx_hal_gpio.c ****         }
 255:Drivers/STM32F4xx_HAL_Driver/Src/stm32f4xx_hal_gpio.c ****         EXTI->RTSR = temp;
 767              		.loc 1 255 13
ARM GAS  /tmp/ccZZ89G2.s 			page 19


 768 0476 2E4A     		ldr	r2, .L35+28
 769              		.loc 1 255 20
 770 0478 BB69     		ldr	r3, [r7, #24]
 771 047a 9360     		str	r3, [r2, #8]
 256:Drivers/STM32F4xx_HAL_Driver/Src/stm32f4xx_hal_gpio.c **** 
 257:Drivers/STM32F4xx_HAL_Driver/Src/stm32f4xx_hal_gpio.c ****         temp = EXTI->FTSR;
 772              		.loc 1 257 20
 773 047c 2C4B     		ldr	r3, .L35+28
 774              		.loc 1 257 14
 775 047e DB68     		ldr	r3, [r3, #12]
 776 0480 BB61     		str	r3, [r7, #24]
 258:Drivers/STM32F4xx_HAL_Driver/Src/stm32f4xx_hal_gpio.c ****         temp &= ~((uint32_t)iocurrent);
 777              		.loc 1 258 17
 778 0482 3B69     		ldr	r3, [r7, #16]
 779 0484 DB43     		mvns	r3, r3
 780              		.loc 1 258 14
 781 0486 BA69     		ldr	r2, [r7, #24]
 782 0488 1340     		ands	r3, r3, r2
 783 048a BB61     		str	r3, [r7, #24]
 259:Drivers/STM32F4xx_HAL_Driver/Src/stm32f4xx_hal_gpio.c ****         if((GPIO_Init->Mode & TRIGGER_FALLING) != 0x00U)
 784              		.loc 1 259 22
 785 048c 3B68     		ldr	r3, [r7]
 786 048e 5B68     		ldr	r3, [r3, #4]
 787              		.loc 1 259 29
 788 0490 03F40013 		and	r3, r3, #2097152
 789              		.loc 1 259 11
 790 0494 002B     		cmp	r3, #0
 791 0496 03D0     		beq	.L26
 260:Drivers/STM32F4xx_HAL_Driver/Src/stm32f4xx_hal_gpio.c ****         {
 261:Drivers/STM32F4xx_HAL_Driver/Src/stm32f4xx_hal_gpio.c ****           temp |= iocurrent;
 792              		.loc 1 261 16
 793 0498 BA69     		ldr	r2, [r7, #24]
 794 049a 3B69     		ldr	r3, [r7, #16]
 795 049c 1343     		orrs	r3, r3, r2
 796 049e BB61     		str	r3, [r7, #24]
 797              	.L26:
 262:Drivers/STM32F4xx_HAL_Driver/Src/stm32f4xx_hal_gpio.c ****         }
 263:Drivers/STM32F4xx_HAL_Driver/Src/stm32f4xx_hal_gpio.c ****         EXTI->FTSR = temp;
 798              		.loc 1 263 13
 799 04a0 234A     		ldr	r2, .L35+28
 800              		.loc 1 263 20
 801 04a2 BB69     		ldr	r3, [r7, #24]
 802 04a4 D360     		str	r3, [r2, #12]
 264:Drivers/STM32F4xx_HAL_Driver/Src/stm32f4xx_hal_gpio.c **** 
 265:Drivers/STM32F4xx_HAL_Driver/Src/stm32f4xx_hal_gpio.c ****         temp = EXTI->EMR;
 803              		.loc 1 265 20
 804 04a6 224B     		ldr	r3, .L35+28
 805              		.loc 1 265 14
 806 04a8 5B68     		ldr	r3, [r3, #4]
 807 04aa BB61     		str	r3, [r7, #24]
 266:Drivers/STM32F4xx_HAL_Driver/Src/stm32f4xx_hal_gpio.c ****         temp &= ~((uint32_t)iocurrent);
 808              		.loc 1 266 17
 809 04ac 3B69     		ldr	r3, [r7, #16]
 810 04ae DB43     		mvns	r3, r3
 811              		.loc 1 266 14
 812 04b0 BA69     		ldr	r2, [r7, #24]
 813 04b2 1340     		ands	r3, r3, r2
ARM GAS  /tmp/ccZZ89G2.s 			page 20


 814 04b4 BB61     		str	r3, [r7, #24]
 267:Drivers/STM32F4xx_HAL_Driver/Src/stm32f4xx_hal_gpio.c ****         if((GPIO_Init->Mode & EXTI_EVT) != 0x00U)
 815              		.loc 1 267 22
 816 04b6 3B68     		ldr	r3, [r7]
 817 04b8 5B68     		ldr	r3, [r3, #4]
 818              		.loc 1 267 29
 819 04ba 03F40033 		and	r3, r3, #131072
 820              		.loc 1 267 11
 821 04be 002B     		cmp	r3, #0
 822 04c0 03D0     		beq	.L27
 268:Drivers/STM32F4xx_HAL_Driver/Src/stm32f4xx_hal_gpio.c ****         {
 269:Drivers/STM32F4xx_HAL_Driver/Src/stm32f4xx_hal_gpio.c ****           temp |= iocurrent;
 823              		.loc 1 269 16
 824 04c2 BA69     		ldr	r2, [r7, #24]
 825 04c4 3B69     		ldr	r3, [r7, #16]
 826 04c6 1343     		orrs	r3, r3, r2
 827 04c8 BB61     		str	r3, [r7, #24]
 828              	.L27:
 270:Drivers/STM32F4xx_HAL_Driver/Src/stm32f4xx_hal_gpio.c ****         }
 271:Drivers/STM32F4xx_HAL_Driver/Src/stm32f4xx_hal_gpio.c ****         EXTI->EMR = temp;
 829              		.loc 1 271 13
 830 04ca 194A     		ldr	r2, .L35+28
 831              		.loc 1 271 19
 832 04cc BB69     		ldr	r3, [r7, #24]
 833 04ce 5360     		str	r3, [r2, #4]
 272:Drivers/STM32F4xx_HAL_Driver/Src/stm32f4xx_hal_gpio.c **** 
 273:Drivers/STM32F4xx_HAL_Driver/Src/stm32f4xx_hal_gpio.c ****         /* Clear EXTI line configuration */
 274:Drivers/STM32F4xx_HAL_Driver/Src/stm32f4xx_hal_gpio.c ****         temp = EXTI->IMR;
 834              		.loc 1 274 20
 835 04d0 174B     		ldr	r3, .L35+28
 836              		.loc 1 274 14
 837 04d2 1B68     		ldr	r3, [r3]
 838 04d4 BB61     		str	r3, [r7, #24]
 275:Drivers/STM32F4xx_HAL_Driver/Src/stm32f4xx_hal_gpio.c ****         temp &= ~((uint32_t)iocurrent);
 839              		.loc 1 275 17
 840 04d6 3B69     		ldr	r3, [r7, #16]
 841 04d8 DB43     		mvns	r3, r3
 842              		.loc 1 275 14
 843 04da BA69     		ldr	r2, [r7, #24]
 844 04dc 1340     		ands	r3, r3, r2
 845 04de BB61     		str	r3, [r7, #24]
 276:Drivers/STM32F4xx_HAL_Driver/Src/stm32f4xx_hal_gpio.c ****         if((GPIO_Init->Mode & EXTI_IT) != 0x00U)
 846              		.loc 1 276 22
 847 04e0 3B68     		ldr	r3, [r7]
 848 04e2 5B68     		ldr	r3, [r3, #4]
 849              		.loc 1 276 29
 850 04e4 03F48033 		and	r3, r3, #65536
 851              		.loc 1 276 11
 852 04e8 002B     		cmp	r3, #0
 853 04ea 03D0     		beq	.L28
 277:Drivers/STM32F4xx_HAL_Driver/Src/stm32f4xx_hal_gpio.c ****         {
 278:Drivers/STM32F4xx_HAL_Driver/Src/stm32f4xx_hal_gpio.c ****           temp |= iocurrent;
 854              		.loc 1 278 16
 855 04ec BA69     		ldr	r2, [r7, #24]
 856 04ee 3B69     		ldr	r3, [r7, #16]
 857 04f0 1343     		orrs	r3, r3, r2
 858 04f2 BB61     		str	r3, [r7, #24]
ARM GAS  /tmp/ccZZ89G2.s 			page 21


 859              	.L28:
 279:Drivers/STM32F4xx_HAL_Driver/Src/stm32f4xx_hal_gpio.c ****         }
 280:Drivers/STM32F4xx_HAL_Driver/Src/stm32f4xx_hal_gpio.c ****         EXTI->IMR = temp;
 860              		.loc 1 280 13
 861 04f4 0E4A     		ldr	r2, .L35+28
 862              		.loc 1 280 19
 863 04f6 BB69     		ldr	r3, [r7, #24]
 864 04f8 1360     		str	r3, [r2]
 865              	.L7:
 177:Drivers/STM32F4xx_HAL_Driver/Src/stm32f4xx_hal_gpio.c ****   {
 866              		.loc 1 177 54 discriminator 2
 867 04fa FB69     		ldr	r3, [r7, #28]
 868 04fc 0133     		adds	r3, r3, #1
 869 04fe FB61     		str	r3, [r7, #28]
 870              	.L6:
 177:Drivers/STM32F4xx_HAL_Driver/Src/stm32f4xx_hal_gpio.c ****   {
 871              		.loc 1 177 3 discriminator 1
 872 0500 FB69     		ldr	r3, [r7, #28]
 873 0502 0F2B     		cmp	r3, #15
 874 0504 7FF6FEAD 		bls	.L29
 281:Drivers/STM32F4xx_HAL_Driver/Src/stm32f4xx_hal_gpio.c ****       }
 282:Drivers/STM32F4xx_HAL_Driver/Src/stm32f4xx_hal_gpio.c ****     }
 283:Drivers/STM32F4xx_HAL_Driver/Src/stm32f4xx_hal_gpio.c ****   }
 284:Drivers/STM32F4xx_HAL_Driver/Src/stm32f4xx_hal_gpio.c **** }
 875              		.loc 1 284 1
 876 0508 00BF     		nop
 877 050a 00BF     		nop
 878 050c 2037     		adds	r7, r7, #32
 879              	.LCFI3:
 880              		.cfi_def_cfa_offset 8
 881 050e BD46     		mov	sp, r7
 882              	.LCFI4:
 883              		.cfi_def_cfa_register 13
 884              		@ sp needed
 885 0510 80BD     		pop	{r7, pc}
 886              	.L36:
 887 0512 00BF     		.align	2
 888              	.L35:
 889 0514 00380240 		.word	1073887232
 890 0518 00380140 		.word	1073821696
 891 051c 00000240 		.word	1073872896
 892 0520 00040240 		.word	1073873920
 893 0524 00080240 		.word	1073874944
 894 0528 000C0240 		.word	1073875968
 895 052c 00100240 		.word	1073876992
 896 0530 003C0140 		.word	1073822720
 897              		.cfi_endproc
 898              	.LFE130:
 900              		.section	.text.HAL_GPIO_DeInit,"ax",%progbits
 901              		.align	1
 902              		.global	HAL_GPIO_DeInit
 903              		.syntax unified
 904              		.thumb
 905              		.thumb_func
 906              		.fpu fpv4-sp-d16
 908              	HAL_GPIO_DeInit:
 909              	.LFB131:
ARM GAS  /tmp/ccZZ89G2.s 			page 22


 285:Drivers/STM32F4xx_HAL_Driver/Src/stm32f4xx_hal_gpio.c **** 
 286:Drivers/STM32F4xx_HAL_Driver/Src/stm32f4xx_hal_gpio.c **** /**
 287:Drivers/STM32F4xx_HAL_Driver/Src/stm32f4xx_hal_gpio.c ****   * @brief  De-initializes the GPIOx peripheral registers to their default reset values.
 288:Drivers/STM32F4xx_HAL_Driver/Src/stm32f4xx_hal_gpio.c ****   * @param  GPIOx where x can be (A..K) to select the GPIO peripheral for STM32F429X device or
 289:Drivers/STM32F4xx_HAL_Driver/Src/stm32f4xx_hal_gpio.c ****   *                      x can be (A..I) to select the GPIO peripheral for STM32F40XX and STM32F427
 290:Drivers/STM32F4xx_HAL_Driver/Src/stm32f4xx_hal_gpio.c ****   * @param  GPIO_Pin specifies the port bit to be written.
 291:Drivers/STM32F4xx_HAL_Driver/Src/stm32f4xx_hal_gpio.c ****   *          This parameter can be one of GPIO_PIN_x where x can be (0..15).
 292:Drivers/STM32F4xx_HAL_Driver/Src/stm32f4xx_hal_gpio.c ****   * @retval None
 293:Drivers/STM32F4xx_HAL_Driver/Src/stm32f4xx_hal_gpio.c ****   */
 294:Drivers/STM32F4xx_HAL_Driver/Src/stm32f4xx_hal_gpio.c **** void HAL_GPIO_DeInit(GPIO_TypeDef  *GPIOx, uint32_t GPIO_Pin)
 295:Drivers/STM32F4xx_HAL_Driver/Src/stm32f4xx_hal_gpio.c **** {
 910              		.loc 1 295 1
 911              		.cfi_startproc
 912              		@ args = 0, pretend = 0, frame = 24
 913              		@ frame_needed = 1, uses_anonymous_args = 0
 914 0000 80B5     		push	{r7, lr}
 915              	.LCFI5:
 916              		.cfi_def_cfa_offset 8
 917              		.cfi_offset 7, -8
 918              		.cfi_offset 14, -4
 919 0002 86B0     		sub	sp, sp, #24
 920              	.LCFI6:
 921              		.cfi_def_cfa_offset 32
 922 0004 00AF     		add	r7, sp, #0
 923              	.LCFI7:
 924              		.cfi_def_cfa_register 7
 925 0006 7860     		str	r0, [r7, #4]
 926 0008 3960     		str	r1, [r7]
 296:Drivers/STM32F4xx_HAL_Driver/Src/stm32f4xx_hal_gpio.c ****   uint32_t position;
 297:Drivers/STM32F4xx_HAL_Driver/Src/stm32f4xx_hal_gpio.c ****   uint32_t ioposition = 0x00U;
 927              		.loc 1 297 12
 928 000a 0023     		movs	r3, #0
 929 000c 3B61     		str	r3, [r7, #16]
 298:Drivers/STM32F4xx_HAL_Driver/Src/stm32f4xx_hal_gpio.c ****   uint32_t iocurrent = 0x00U;
 930              		.loc 1 298 12
 931 000e 0023     		movs	r3, #0
 932 0010 FB60     		str	r3, [r7, #12]
 299:Drivers/STM32F4xx_HAL_Driver/Src/stm32f4xx_hal_gpio.c ****   uint32_t tmp = 0x00U;
 933              		.loc 1 299 12
 934 0012 0023     		movs	r3, #0
 935 0014 BB60     		str	r3, [r7, #8]
 300:Drivers/STM32F4xx_HAL_Driver/Src/stm32f4xx_hal_gpio.c **** 
 301:Drivers/STM32F4xx_HAL_Driver/Src/stm32f4xx_hal_gpio.c ****   /* Check the parameters */
 302:Drivers/STM32F4xx_HAL_Driver/Src/stm32f4xx_hal_gpio.c ****   assert_param(IS_GPIO_ALL_INSTANCE(GPIOx));
 936              		.loc 1 302 3
 937 0016 7B68     		ldr	r3, [r7, #4]
 938 0018 714A     		ldr	r2, .L53
 939 001a 9342     		cmp	r3, r2
 940 001c 18D0     		beq	.L38
 941              		.loc 1 302 3 is_stmt 0 discriminator 1
 942 001e 7B68     		ldr	r3, [r7, #4]
 943 0020 704A     		ldr	r2, .L53+4
 944 0022 9342     		cmp	r3, r2
 945 0024 14D0     		beq	.L38
 946              		.loc 1 302 3 discriminator 2
 947 0026 7B68     		ldr	r3, [r7, #4]
 948 0028 6F4A     		ldr	r2, .L53+8
ARM GAS  /tmp/ccZZ89G2.s 			page 23


 949 002a 9342     		cmp	r3, r2
 950 002c 10D0     		beq	.L38
 951              		.loc 1 302 3 discriminator 3
 952 002e 7B68     		ldr	r3, [r7, #4]
 953 0030 6E4A     		ldr	r2, .L53+12
 954 0032 9342     		cmp	r3, r2
 955 0034 0CD0     		beq	.L38
 956              		.loc 1 302 3 discriminator 4
 957 0036 7B68     		ldr	r3, [r7, #4]
 958 0038 6D4A     		ldr	r2, .L53+16
 959 003a 9342     		cmp	r3, r2
 960 003c 08D0     		beq	.L38
 961              		.loc 1 302 3 discriminator 5
 962 003e 7B68     		ldr	r3, [r7, #4]
 963 0040 6C4A     		ldr	r2, .L53+20
 964 0042 9342     		cmp	r3, r2
 965 0044 04D0     		beq	.L38
 966              		.loc 1 302 3 discriminator 6
 967 0046 4FF49771 		mov	r1, #302
 968 004a 6B48     		ldr	r0, .L53+24
 969 004c FFF7FEFF 		bl	assert_failed
 970              	.L38:
 303:Drivers/STM32F4xx_HAL_Driver/Src/stm32f4xx_hal_gpio.c ****   
 304:Drivers/STM32F4xx_HAL_Driver/Src/stm32f4xx_hal_gpio.c ****   /* Configure the port pins */
 305:Drivers/STM32F4xx_HAL_Driver/Src/stm32f4xx_hal_gpio.c ****   for(position = 0U; position < GPIO_NUMBER; position++)
 971              		.loc 1 305 16 is_stmt 1
 972 0050 0023     		movs	r3, #0
 973 0052 7B61     		str	r3, [r7, #20]
 974              		.loc 1 305 3
 975 0054 BBE0     		b	.L39
 976              	.L52:
 306:Drivers/STM32F4xx_HAL_Driver/Src/stm32f4xx_hal_gpio.c ****   {
 307:Drivers/STM32F4xx_HAL_Driver/Src/stm32f4xx_hal_gpio.c ****     /* Get the IO position */
 308:Drivers/STM32F4xx_HAL_Driver/Src/stm32f4xx_hal_gpio.c ****     ioposition = 0x01U << position;
 977              		.loc 1 308 16
 978 0056 0122     		movs	r2, #1
 979 0058 7B69     		ldr	r3, [r7, #20]
 980 005a 02FA03F3 		lsl	r3, r2, r3
 981 005e 3B61     		str	r3, [r7, #16]
 309:Drivers/STM32F4xx_HAL_Driver/Src/stm32f4xx_hal_gpio.c ****     /* Get the current IO position */
 310:Drivers/STM32F4xx_HAL_Driver/Src/stm32f4xx_hal_gpio.c ****     iocurrent = (GPIO_Pin) & ioposition;
 982              		.loc 1 310 15
 983 0060 3A68     		ldr	r2, [r7]
 984 0062 3B69     		ldr	r3, [r7, #16]
 985 0064 1340     		ands	r3, r3, r2
 986 0066 FB60     		str	r3, [r7, #12]
 311:Drivers/STM32F4xx_HAL_Driver/Src/stm32f4xx_hal_gpio.c **** 
 312:Drivers/STM32F4xx_HAL_Driver/Src/stm32f4xx_hal_gpio.c ****     if(iocurrent == ioposition)
 987              		.loc 1 312 7
 988 0068 FA68     		ldr	r2, [r7, #12]
 989 006a 3B69     		ldr	r3, [r7, #16]
 990 006c 9A42     		cmp	r2, r3
 991 006e 40F0AB80 		bne	.L40
 313:Drivers/STM32F4xx_HAL_Driver/Src/stm32f4xx_hal_gpio.c ****     {
 314:Drivers/STM32F4xx_HAL_Driver/Src/stm32f4xx_hal_gpio.c ****       /*------------------------- EXTI Mode Configuration --------------------*/
 315:Drivers/STM32F4xx_HAL_Driver/Src/stm32f4xx_hal_gpio.c ****       tmp = SYSCFG->EXTICR[position >> 2U];
 992              		.loc 1 315 19
ARM GAS  /tmp/ccZZ89G2.s 			page 24


 993 0072 624A     		ldr	r2, .L53+28
 994              		.loc 1 315 37
 995 0074 7B69     		ldr	r3, [r7, #20]
 996 0076 9B08     		lsrs	r3, r3, #2
 997              		.loc 1 315 11
 998 0078 0233     		adds	r3, r3, #2
 999 007a 52F82330 		ldr	r3, [r2, r3, lsl #2]
 1000 007e BB60     		str	r3, [r7, #8]
 316:Drivers/STM32F4xx_HAL_Driver/Src/stm32f4xx_hal_gpio.c ****       tmp &= (0x0FU << (4U * (position & 0x03U)));
 1001              		.loc 1 316 40
 1002 0080 7B69     		ldr	r3, [r7, #20]
 1003 0082 03F00303 		and	r3, r3, #3
 1004              		.loc 1 316 28
 1005 0086 9B00     		lsls	r3, r3, #2
 1006              		.loc 1 316 21
 1007 0088 0F22     		movs	r2, #15
 1008 008a 02FA03F3 		lsl	r3, r2, r3
 1009              		.loc 1 316 11
 1010 008e BA68     		ldr	r2, [r7, #8]
 1011 0090 1340     		ands	r3, r3, r2
 1012 0092 BB60     		str	r3, [r7, #8]
 317:Drivers/STM32F4xx_HAL_Driver/Src/stm32f4xx_hal_gpio.c ****       if(tmp == ((uint32_t)(GPIO_GET_INDEX(GPIOx)) << (4U * (position & 0x03U))))
 1013              		.loc 1 317 18
 1014 0094 7B68     		ldr	r3, [r7, #4]
 1015 0096 524A     		ldr	r2, .L53
 1016 0098 9342     		cmp	r3, r2
 1017 009a 19D0     		beq	.L41
 1018              		.loc 1 317 29 discriminator 1
 1019 009c 7B68     		ldr	r3, [r7, #4]
 1020 009e 514A     		ldr	r2, .L53+4
 1021 00a0 9342     		cmp	r3, r2
 1022 00a2 13D0     		beq	.L42
 1023              		.loc 1 317 29 is_stmt 0 discriminator 3
 1024 00a4 7B68     		ldr	r3, [r7, #4]
 1025 00a6 504A     		ldr	r2, .L53+8
 1026 00a8 9342     		cmp	r3, r2
 1027 00aa 0DD0     		beq	.L43
 1028              		.loc 1 317 29 discriminator 5
 1029 00ac 7B68     		ldr	r3, [r7, #4]
 1030 00ae 4F4A     		ldr	r2, .L53+12
 1031 00b0 9342     		cmp	r3, r2
 1032 00b2 07D0     		beq	.L44
 1033              		.loc 1 317 29 discriminator 7
 1034 00b4 7B68     		ldr	r3, [r7, #4]
 1035 00b6 4E4A     		ldr	r2, .L53+16
 1036 00b8 9342     		cmp	r3, r2
 1037 00ba 01D1     		bne	.L45
 1038              		.loc 1 317 29 discriminator 9
 1039 00bc 0423     		movs	r3, #4
 1040 00be 08E0     		b	.L50
 1041              	.L45:
 1042              		.loc 1 317 29 discriminator 10
 1043 00c0 0723     		movs	r3, #7
 1044 00c2 06E0     		b	.L50
 1045              	.L44:
 1046              		.loc 1 317 29 discriminator 8
 1047 00c4 0323     		movs	r3, #3
ARM GAS  /tmp/ccZZ89G2.s 			page 25


 1048 00c6 04E0     		b	.L50
 1049              	.L43:
 1050              		.loc 1 317 29 discriminator 6
 1051 00c8 0223     		movs	r3, #2
 1052 00ca 02E0     		b	.L50
 1053              	.L42:
 1054              		.loc 1 317 29 discriminator 4
 1055 00cc 0123     		movs	r3, #1
 1056 00ce 00E0     		b	.L50
 1057              	.L41:
 1058              		.loc 1 317 18 is_stmt 1 discriminator 2
 1059 00d0 0023     		movs	r3, #0
 1060              	.L50:
 1061              		.loc 1 317 71 discriminator 20
 1062 00d2 7A69     		ldr	r2, [r7, #20]
 1063 00d4 02F00302 		and	r2, r2, #3
 1064              		.loc 1 317 59 discriminator 20
 1065 00d8 9200     		lsls	r2, r2, #2
 1066              		.loc 1 317 52 discriminator 20
 1067 00da 9340     		lsls	r3, r3, r2
 1068              		.loc 1 317 9 discriminator 20
 1069 00dc BA68     		ldr	r2, [r7, #8]
 1070 00de 9A42     		cmp	r2, r3
 1071 00e0 32D1     		bne	.L51
 318:Drivers/STM32F4xx_HAL_Driver/Src/stm32f4xx_hal_gpio.c ****       {
 319:Drivers/STM32F4xx_HAL_Driver/Src/stm32f4xx_hal_gpio.c ****         /* Clear EXTI line configuration */
 320:Drivers/STM32F4xx_HAL_Driver/Src/stm32f4xx_hal_gpio.c ****         EXTI->IMR &= ~((uint32_t)iocurrent);
 1072              		.loc 1 320 19
 1073 00e2 474B     		ldr	r3, .L53+32
 1074 00e4 1A68     		ldr	r2, [r3]
 1075              		.loc 1 320 22
 1076 00e6 FB68     		ldr	r3, [r7, #12]
 1077 00e8 DB43     		mvns	r3, r3
 1078              		.loc 1 320 19
 1079 00ea 4549     		ldr	r1, .L53+32
 1080 00ec 1340     		ands	r3, r3, r2
 1081 00ee 0B60     		str	r3, [r1]
 321:Drivers/STM32F4xx_HAL_Driver/Src/stm32f4xx_hal_gpio.c ****         EXTI->EMR &= ~((uint32_t)iocurrent);
 1082              		.loc 1 321 19
 1083 00f0 434B     		ldr	r3, .L53+32
 1084 00f2 5A68     		ldr	r2, [r3, #4]
 1085              		.loc 1 321 22
 1086 00f4 FB68     		ldr	r3, [r7, #12]
 1087 00f6 DB43     		mvns	r3, r3
 1088              		.loc 1 321 19
 1089 00f8 4149     		ldr	r1, .L53+32
 1090 00fa 1340     		ands	r3, r3, r2
 1091 00fc 4B60     		str	r3, [r1, #4]
 322:Drivers/STM32F4xx_HAL_Driver/Src/stm32f4xx_hal_gpio.c ****         
 323:Drivers/STM32F4xx_HAL_Driver/Src/stm32f4xx_hal_gpio.c ****         /* Clear Rising Falling edge configuration */
 324:Drivers/STM32F4xx_HAL_Driver/Src/stm32f4xx_hal_gpio.c ****         EXTI->FTSR &= ~((uint32_t)iocurrent);
 1092              		.loc 1 324 20
 1093 00fe 404B     		ldr	r3, .L53+32
 1094 0100 DA68     		ldr	r2, [r3, #12]
 1095              		.loc 1 324 23
 1096 0102 FB68     		ldr	r3, [r7, #12]
 1097 0104 DB43     		mvns	r3, r3
ARM GAS  /tmp/ccZZ89G2.s 			page 26


 1098              		.loc 1 324 20
 1099 0106 3E49     		ldr	r1, .L53+32
 1100 0108 1340     		ands	r3, r3, r2
 1101 010a CB60     		str	r3, [r1, #12]
 325:Drivers/STM32F4xx_HAL_Driver/Src/stm32f4xx_hal_gpio.c ****         EXTI->RTSR &= ~((uint32_t)iocurrent);
 1102              		.loc 1 325 20
 1103 010c 3C4B     		ldr	r3, .L53+32
 1104 010e 9A68     		ldr	r2, [r3, #8]
 1105              		.loc 1 325 23
 1106 0110 FB68     		ldr	r3, [r7, #12]
 1107 0112 DB43     		mvns	r3, r3
 1108              		.loc 1 325 20
 1109 0114 3A49     		ldr	r1, .L53+32
 1110 0116 1340     		ands	r3, r3, r2
 1111 0118 8B60     		str	r3, [r1, #8]
 326:Drivers/STM32F4xx_HAL_Driver/Src/stm32f4xx_hal_gpio.c **** 
 327:Drivers/STM32F4xx_HAL_Driver/Src/stm32f4xx_hal_gpio.c ****         /* Configure the External Interrupt or event for the current IO */
 328:Drivers/STM32F4xx_HAL_Driver/Src/stm32f4xx_hal_gpio.c ****         tmp = 0x0FU << (4U * (position & 0x03U));
 1112              		.loc 1 328 40
 1113 011a 7B69     		ldr	r3, [r7, #20]
 1114 011c 03F00303 		and	r3, r3, #3
 1115              		.loc 1 328 28
 1116 0120 9B00     		lsls	r3, r3, #2
 1117              		.loc 1 328 13
 1118 0122 0F22     		movs	r2, #15
 1119 0124 02FA03F3 		lsl	r3, r2, r3
 1120 0128 BB60     		str	r3, [r7, #8]
 329:Drivers/STM32F4xx_HAL_Driver/Src/stm32f4xx_hal_gpio.c ****         SYSCFG->EXTICR[position >> 2U] &= ~tmp;
 1121              		.loc 1 329 40
 1122 012a 344A     		ldr	r2, .L53+28
 1123 012c 7B69     		ldr	r3, [r7, #20]
 1124 012e 9B08     		lsrs	r3, r3, #2
 1125 0130 0233     		adds	r3, r3, #2
 1126 0132 52F82310 		ldr	r1, [r2, r3, lsl #2]
 1127              		.loc 1 329 43
 1128 0136 BB68     		ldr	r3, [r7, #8]
 1129 0138 DA43     		mvns	r2, r3
 1130              		.loc 1 329 40
 1131 013a 3048     		ldr	r0, .L53+28
 1132 013c 7B69     		ldr	r3, [r7, #20]
 1133 013e 9B08     		lsrs	r3, r3, #2
 1134 0140 0A40     		ands	r2, r2, r1
 1135 0142 0233     		adds	r3, r3, #2
 1136 0144 40F82320 		str	r2, [r0, r3, lsl #2]
 1137              	.L51:
 330:Drivers/STM32F4xx_HAL_Driver/Src/stm32f4xx_hal_gpio.c ****       }
 331:Drivers/STM32F4xx_HAL_Driver/Src/stm32f4xx_hal_gpio.c **** 
 332:Drivers/STM32F4xx_HAL_Driver/Src/stm32f4xx_hal_gpio.c ****       /*------------------------- GPIO Mode Configuration --------------------*/
 333:Drivers/STM32F4xx_HAL_Driver/Src/stm32f4xx_hal_gpio.c ****       /* Configure IO Direction in Input Floating Mode */
 334:Drivers/STM32F4xx_HAL_Driver/Src/stm32f4xx_hal_gpio.c ****       GPIOx->MODER &= ~(GPIO_MODER_MODER0 << (position * 2U));
 1138              		.loc 1 334 20
 1139 0148 7B68     		ldr	r3, [r7, #4]
 1140 014a 1A68     		ldr	r2, [r3]
 1141              		.loc 1 334 56
 1142 014c 7B69     		ldr	r3, [r7, #20]
 1143 014e 5B00     		lsls	r3, r3, #1
 1144              		.loc 1 334 43
ARM GAS  /tmp/ccZZ89G2.s 			page 27


 1145 0150 0321     		movs	r1, #3
 1146 0152 01FA03F3 		lsl	r3, r1, r3
 1147              		.loc 1 334 23
 1148 0156 DB43     		mvns	r3, r3
 1149              		.loc 1 334 20
 1150 0158 1A40     		ands	r2, r2, r3
 1151 015a 7B68     		ldr	r3, [r7, #4]
 1152 015c 1A60     		str	r2, [r3]
 335:Drivers/STM32F4xx_HAL_Driver/Src/stm32f4xx_hal_gpio.c **** 
 336:Drivers/STM32F4xx_HAL_Driver/Src/stm32f4xx_hal_gpio.c ****       /* Configure the default Alternate Function in current IO */
 337:Drivers/STM32F4xx_HAL_Driver/Src/stm32f4xx_hal_gpio.c ****       GPIOx->AFR[position >> 3U] &= ~(0xFU << ((uint32_t)(position & 0x07U) * 4U)) ;
 1153              		.loc 1 337 34
 1154 015e 7B69     		ldr	r3, [r7, #20]
 1155 0160 DA08     		lsrs	r2, r3, #3
 1156 0162 7B68     		ldr	r3, [r7, #4]
 1157 0164 0832     		adds	r2, r2, #8
 1158 0166 53F82210 		ldr	r1, [r3, r2, lsl #2]
 1159              		.loc 1 337 48
 1160 016a 7B69     		ldr	r3, [r7, #20]
 1161 016c 03F00703 		and	r3, r3, #7
 1162              		.loc 1 337 77
 1163 0170 9B00     		lsls	r3, r3, #2
 1164              		.loc 1 337 44
 1165 0172 0F22     		movs	r2, #15
 1166 0174 02FA03F3 		lsl	r3, r2, r3
 1167              		.loc 1 337 37
 1168 0178 DB43     		mvns	r3, r3
 1169              		.loc 1 337 34
 1170 017a 7A69     		ldr	r2, [r7, #20]
 1171 017c D208     		lsrs	r2, r2, #3
 1172 017e 1940     		ands	r1, r1, r3
 1173 0180 7B68     		ldr	r3, [r7, #4]
 1174 0182 0832     		adds	r2, r2, #8
 1175 0184 43F82210 		str	r1, [r3, r2, lsl #2]
 338:Drivers/STM32F4xx_HAL_Driver/Src/stm32f4xx_hal_gpio.c **** 
 339:Drivers/STM32F4xx_HAL_Driver/Src/stm32f4xx_hal_gpio.c ****       /* Deactivate the Pull-up and Pull-down resistor for the current IO */
 340:Drivers/STM32F4xx_HAL_Driver/Src/stm32f4xx_hal_gpio.c ****       GPIOx->PUPDR &= ~(GPIO_PUPDR_PUPDR0 << (position * 2U));
 1176              		.loc 1 340 20
 1177 0188 7B68     		ldr	r3, [r7, #4]
 1178 018a DA68     		ldr	r2, [r3, #12]
 1179              		.loc 1 340 56
 1180 018c 7B69     		ldr	r3, [r7, #20]
 1181 018e 5B00     		lsls	r3, r3, #1
 1182              		.loc 1 340 43
 1183 0190 0321     		movs	r1, #3
 1184 0192 01FA03F3 		lsl	r3, r1, r3
 1185              		.loc 1 340 23
 1186 0196 DB43     		mvns	r3, r3
 1187              		.loc 1 340 20
 1188 0198 1A40     		ands	r2, r2, r3
 1189 019a 7B68     		ldr	r3, [r7, #4]
 1190 019c DA60     		str	r2, [r3, #12]
 341:Drivers/STM32F4xx_HAL_Driver/Src/stm32f4xx_hal_gpio.c **** 
 342:Drivers/STM32F4xx_HAL_Driver/Src/stm32f4xx_hal_gpio.c ****       /* Configure the default value IO Output Type */
 343:Drivers/STM32F4xx_HAL_Driver/Src/stm32f4xx_hal_gpio.c ****       GPIOx->OTYPER  &= ~(GPIO_OTYPER_OT_0 << position) ;
 1191              		.loc 1 343 22
 1192 019e 7B68     		ldr	r3, [r7, #4]
ARM GAS  /tmp/ccZZ89G2.s 			page 28


 1193 01a0 5A68     		ldr	r2, [r3, #4]
 1194              		.loc 1 343 44
 1195 01a2 0121     		movs	r1, #1
 1196 01a4 7B69     		ldr	r3, [r7, #20]
 1197 01a6 01FA03F3 		lsl	r3, r1, r3
 1198              		.loc 1 343 25
 1199 01aa DB43     		mvns	r3, r3
 1200              		.loc 1 343 22
 1201 01ac 1A40     		ands	r2, r2, r3
 1202 01ae 7B68     		ldr	r3, [r7, #4]
 1203 01b0 5A60     		str	r2, [r3, #4]
 344:Drivers/STM32F4xx_HAL_Driver/Src/stm32f4xx_hal_gpio.c **** 
 345:Drivers/STM32F4xx_HAL_Driver/Src/stm32f4xx_hal_gpio.c ****       /* Configure the default value for IO Speed */
 346:Drivers/STM32F4xx_HAL_Driver/Src/stm32f4xx_hal_gpio.c ****       GPIOx->OSPEEDR &= ~(GPIO_OSPEEDER_OSPEEDR0 << (position * 2U));
 1204              		.loc 1 346 22
 1205 01b2 7B68     		ldr	r3, [r7, #4]
 1206 01b4 9A68     		ldr	r2, [r3, #8]
 1207              		.loc 1 346 63
 1208 01b6 7B69     		ldr	r3, [r7, #20]
 1209 01b8 5B00     		lsls	r3, r3, #1
 1210              		.loc 1 346 50
 1211 01ba 0321     		movs	r1, #3
 1212 01bc 01FA03F3 		lsl	r3, r1, r3
 1213              		.loc 1 346 25
 1214 01c0 DB43     		mvns	r3, r3
 1215              		.loc 1 346 22
 1216 01c2 1A40     		ands	r2, r2, r3
 1217 01c4 7B68     		ldr	r3, [r7, #4]
 1218 01c6 9A60     		str	r2, [r3, #8]
 1219              	.L40:
 305:Drivers/STM32F4xx_HAL_Driver/Src/stm32f4xx_hal_gpio.c ****   {
 1220              		.loc 1 305 54 discriminator 2
 1221 01c8 7B69     		ldr	r3, [r7, #20]
 1222 01ca 0133     		adds	r3, r3, #1
 1223 01cc 7B61     		str	r3, [r7, #20]
 1224              	.L39:
 305:Drivers/STM32F4xx_HAL_Driver/Src/stm32f4xx_hal_gpio.c ****   {
 1225              		.loc 1 305 3 discriminator 1
 1226 01ce 7B69     		ldr	r3, [r7, #20]
 1227 01d0 0F2B     		cmp	r3, #15
 1228 01d2 7FF640AF 		bls	.L52
 347:Drivers/STM32F4xx_HAL_Driver/Src/stm32f4xx_hal_gpio.c ****     }
 348:Drivers/STM32F4xx_HAL_Driver/Src/stm32f4xx_hal_gpio.c ****   }
 349:Drivers/STM32F4xx_HAL_Driver/Src/stm32f4xx_hal_gpio.c **** }
 1229              		.loc 1 349 1
 1230 01d6 00BF     		nop
 1231 01d8 00BF     		nop
 1232 01da 1837     		adds	r7, r7, #24
 1233              	.LCFI8:
 1234              		.cfi_def_cfa_offset 8
 1235 01dc BD46     		mov	sp, r7
 1236              	.LCFI9:
 1237              		.cfi_def_cfa_register 13
 1238              		@ sp needed
 1239 01de 80BD     		pop	{r7, pc}
 1240              	.L54:
 1241              		.align	2
ARM GAS  /tmp/ccZZ89G2.s 			page 29


 1242              	.L53:
 1243 01e0 00000240 		.word	1073872896
 1244 01e4 00040240 		.word	1073873920
 1245 01e8 00080240 		.word	1073874944
 1246 01ec 000C0240 		.word	1073875968
 1247 01f0 00100240 		.word	1073876992
 1248 01f4 001C0240 		.word	1073880064
 1249 01f8 00000000 		.word	.LC0
 1250 01fc 00380140 		.word	1073821696
 1251 0200 003C0140 		.word	1073822720
 1252              		.cfi_endproc
 1253              	.LFE131:
 1255              		.section	.text.HAL_GPIO_ReadPin,"ax",%progbits
 1256              		.align	1
 1257              		.global	HAL_GPIO_ReadPin
 1258              		.syntax unified
 1259              		.thumb
 1260              		.thumb_func
 1261              		.fpu fpv4-sp-d16
 1263              	HAL_GPIO_ReadPin:
 1264              	.LFB132:
 350:Drivers/STM32F4xx_HAL_Driver/Src/stm32f4xx_hal_gpio.c **** 
 351:Drivers/STM32F4xx_HAL_Driver/Src/stm32f4xx_hal_gpio.c **** /**
 352:Drivers/STM32F4xx_HAL_Driver/Src/stm32f4xx_hal_gpio.c ****   * @}
 353:Drivers/STM32F4xx_HAL_Driver/Src/stm32f4xx_hal_gpio.c ****   */
 354:Drivers/STM32F4xx_HAL_Driver/Src/stm32f4xx_hal_gpio.c **** 
 355:Drivers/STM32F4xx_HAL_Driver/Src/stm32f4xx_hal_gpio.c **** /** @defgroup GPIO_Exported_Functions_Group2 IO operation functions 
 356:Drivers/STM32F4xx_HAL_Driver/Src/stm32f4xx_hal_gpio.c ****   *  @brief   GPIO Read and Write
 357:Drivers/STM32F4xx_HAL_Driver/Src/stm32f4xx_hal_gpio.c ****   *
 358:Drivers/STM32F4xx_HAL_Driver/Src/stm32f4xx_hal_gpio.c **** @verbatim
 359:Drivers/STM32F4xx_HAL_Driver/Src/stm32f4xx_hal_gpio.c ****  ===============================================================================
 360:Drivers/STM32F4xx_HAL_Driver/Src/stm32f4xx_hal_gpio.c ****                        ##### IO operation functions #####
 361:Drivers/STM32F4xx_HAL_Driver/Src/stm32f4xx_hal_gpio.c ****  ===============================================================================
 362:Drivers/STM32F4xx_HAL_Driver/Src/stm32f4xx_hal_gpio.c **** 
 363:Drivers/STM32F4xx_HAL_Driver/Src/stm32f4xx_hal_gpio.c **** @endverbatim
 364:Drivers/STM32F4xx_HAL_Driver/Src/stm32f4xx_hal_gpio.c ****   * @{
 365:Drivers/STM32F4xx_HAL_Driver/Src/stm32f4xx_hal_gpio.c ****   */
 366:Drivers/STM32F4xx_HAL_Driver/Src/stm32f4xx_hal_gpio.c **** 
 367:Drivers/STM32F4xx_HAL_Driver/Src/stm32f4xx_hal_gpio.c **** /**
 368:Drivers/STM32F4xx_HAL_Driver/Src/stm32f4xx_hal_gpio.c ****   * @brief  Reads the specified input port pin.
 369:Drivers/STM32F4xx_HAL_Driver/Src/stm32f4xx_hal_gpio.c ****   * @param  GPIOx where x can be (A..K) to select the GPIO peripheral for STM32F429X device or
 370:Drivers/STM32F4xx_HAL_Driver/Src/stm32f4xx_hal_gpio.c ****   *                      x can be (A..I) to select the GPIO peripheral for STM32F40XX and STM32F427
 371:Drivers/STM32F4xx_HAL_Driver/Src/stm32f4xx_hal_gpio.c ****   * @param  GPIO_Pin specifies the port bit to read.
 372:Drivers/STM32F4xx_HAL_Driver/Src/stm32f4xx_hal_gpio.c ****   *         This parameter can be GPIO_PIN_x where x can be (0..15).
 373:Drivers/STM32F4xx_HAL_Driver/Src/stm32f4xx_hal_gpio.c ****   * @retval The input port pin value.
 374:Drivers/STM32F4xx_HAL_Driver/Src/stm32f4xx_hal_gpio.c ****   */
 375:Drivers/STM32F4xx_HAL_Driver/Src/stm32f4xx_hal_gpio.c **** GPIO_PinState HAL_GPIO_ReadPin(GPIO_TypeDef* GPIOx, uint16_t GPIO_Pin)
 376:Drivers/STM32F4xx_HAL_Driver/Src/stm32f4xx_hal_gpio.c **** {
 1265              		.loc 1 376 1
 1266              		.cfi_startproc
 1267              		@ args = 0, pretend = 0, frame = 16
 1268              		@ frame_needed = 1, uses_anonymous_args = 0
 1269 0000 80B5     		push	{r7, lr}
 1270              	.LCFI10:
 1271              		.cfi_def_cfa_offset 8
 1272              		.cfi_offset 7, -8
 1273              		.cfi_offset 14, -4
ARM GAS  /tmp/ccZZ89G2.s 			page 30


 1274 0002 84B0     		sub	sp, sp, #16
 1275              	.LCFI11:
 1276              		.cfi_def_cfa_offset 24
 1277 0004 00AF     		add	r7, sp, #0
 1278              	.LCFI12:
 1279              		.cfi_def_cfa_register 7
 1280 0006 7860     		str	r0, [r7, #4]
 1281 0008 0B46     		mov	r3, r1
 1282 000a 7B80     		strh	r3, [r7, #2]	@ movhi
 377:Drivers/STM32F4xx_HAL_Driver/Src/stm32f4xx_hal_gpio.c ****   GPIO_PinState bitstatus;
 378:Drivers/STM32F4xx_HAL_Driver/Src/stm32f4xx_hal_gpio.c **** 
 379:Drivers/STM32F4xx_HAL_Driver/Src/stm32f4xx_hal_gpio.c ****   /* Check the parameters */
 380:Drivers/STM32F4xx_HAL_Driver/Src/stm32f4xx_hal_gpio.c ****   assert_param(IS_GPIO_PIN(GPIO_Pin));
 1283              		.loc 1 380 3
 1284 000c 7B88     		ldrh	r3, [r7, #2]
 1285 000e 002B     		cmp	r3, #0
 1286 0010 04D0     		beq	.L56
 1287              		.loc 1 380 3 is_stmt 0 discriminator 2
 1288 0012 7B88     		ldrh	r3, [r7, #2]
 1289 0014 1B0C     		lsrs	r3, r3, #16
 1290 0016 1B04     		lsls	r3, r3, #16
 1291 0018 002B     		cmp	r3, #0
 1292 001a 04D0     		beq	.L57
 1293              	.L56:
 1294              		.loc 1 380 3 discriminator 3
 1295 001c 4FF4BE71 		mov	r1, #380
 1296 0020 0948     		ldr	r0, .L61
 1297 0022 FFF7FEFF 		bl	assert_failed
 1298              	.L57:
 381:Drivers/STM32F4xx_HAL_Driver/Src/stm32f4xx_hal_gpio.c **** 
 382:Drivers/STM32F4xx_HAL_Driver/Src/stm32f4xx_hal_gpio.c ****   if((GPIOx->IDR & GPIO_Pin) != (uint32_t)GPIO_PIN_RESET)
 1299              		.loc 1 382 12 is_stmt 1
 1300 0026 7B68     		ldr	r3, [r7, #4]
 1301 0028 1A69     		ldr	r2, [r3, #16]
 1302              		.loc 1 382 18
 1303 002a 7B88     		ldrh	r3, [r7, #2]
 1304 002c 1340     		ands	r3, r3, r2
 1305              		.loc 1 382 5
 1306 002e 002B     		cmp	r3, #0
 1307 0030 02D0     		beq	.L58
 383:Drivers/STM32F4xx_HAL_Driver/Src/stm32f4xx_hal_gpio.c ****   {
 384:Drivers/STM32F4xx_HAL_Driver/Src/stm32f4xx_hal_gpio.c ****     bitstatus = GPIO_PIN_SET;
 1308              		.loc 1 384 15
 1309 0032 0123     		movs	r3, #1
 1310 0034 FB73     		strb	r3, [r7, #15]
 1311 0036 01E0     		b	.L59
 1312              	.L58:
 385:Drivers/STM32F4xx_HAL_Driver/Src/stm32f4xx_hal_gpio.c ****   }
 386:Drivers/STM32F4xx_HAL_Driver/Src/stm32f4xx_hal_gpio.c ****   else
 387:Drivers/STM32F4xx_HAL_Driver/Src/stm32f4xx_hal_gpio.c ****   {
 388:Drivers/STM32F4xx_HAL_Driver/Src/stm32f4xx_hal_gpio.c ****     bitstatus = GPIO_PIN_RESET;
 1313              		.loc 1 388 15
 1314 0038 0023     		movs	r3, #0
 1315 003a FB73     		strb	r3, [r7, #15]
 1316              	.L59:
 389:Drivers/STM32F4xx_HAL_Driver/Src/stm32f4xx_hal_gpio.c ****   }
 390:Drivers/STM32F4xx_HAL_Driver/Src/stm32f4xx_hal_gpio.c ****   return bitstatus;
ARM GAS  /tmp/ccZZ89G2.s 			page 31


 1317              		.loc 1 390 10
 1318 003c FB7B     		ldrb	r3, [r7, #15]	@ zero_extendqisi2
 391:Drivers/STM32F4xx_HAL_Driver/Src/stm32f4xx_hal_gpio.c **** }
 1319              		.loc 1 391 1
 1320 003e 1846     		mov	r0, r3
 1321 0040 1037     		adds	r7, r7, #16
 1322              	.LCFI13:
 1323              		.cfi_def_cfa_offset 8
 1324 0042 BD46     		mov	sp, r7
 1325              	.LCFI14:
 1326              		.cfi_def_cfa_register 13
 1327              		@ sp needed
 1328 0044 80BD     		pop	{r7, pc}
 1329              	.L62:
 1330 0046 00BF     		.align	2
 1331              	.L61:
 1332 0048 00000000 		.word	.LC0
 1333              		.cfi_endproc
 1334              	.LFE132:
 1336              		.section	.text.HAL_GPIO_WritePin,"ax",%progbits
 1337              		.align	1
 1338              		.global	HAL_GPIO_WritePin
 1339              		.syntax unified
 1340              		.thumb
 1341              		.thumb_func
 1342              		.fpu fpv4-sp-d16
 1344              	HAL_GPIO_WritePin:
 1345              	.LFB133:
 392:Drivers/STM32F4xx_HAL_Driver/Src/stm32f4xx_hal_gpio.c **** 
 393:Drivers/STM32F4xx_HAL_Driver/Src/stm32f4xx_hal_gpio.c **** /**
 394:Drivers/STM32F4xx_HAL_Driver/Src/stm32f4xx_hal_gpio.c ****   * @brief  Sets or clears the selected data port bit.
 395:Drivers/STM32F4xx_HAL_Driver/Src/stm32f4xx_hal_gpio.c ****   *
 396:Drivers/STM32F4xx_HAL_Driver/Src/stm32f4xx_hal_gpio.c ****   * @note   This function uses GPIOx_BSRR register to allow atomic read/modify
 397:Drivers/STM32F4xx_HAL_Driver/Src/stm32f4xx_hal_gpio.c ****   *         accesses. In this way, there is no risk of an IRQ occurring between
 398:Drivers/STM32F4xx_HAL_Driver/Src/stm32f4xx_hal_gpio.c ****   *         the read and the modify access.
 399:Drivers/STM32F4xx_HAL_Driver/Src/stm32f4xx_hal_gpio.c ****   *
 400:Drivers/STM32F4xx_HAL_Driver/Src/stm32f4xx_hal_gpio.c ****   * @param  GPIOx where x can be (A..K) to select the GPIO peripheral for STM32F429X device or
 401:Drivers/STM32F4xx_HAL_Driver/Src/stm32f4xx_hal_gpio.c ****   *                      x can be (A..I) to select the GPIO peripheral for STM32F40XX and STM32F427
 402:Drivers/STM32F4xx_HAL_Driver/Src/stm32f4xx_hal_gpio.c ****   * @param  GPIO_Pin specifies the port bit to be written.
 403:Drivers/STM32F4xx_HAL_Driver/Src/stm32f4xx_hal_gpio.c ****   *          This parameter can be one of GPIO_PIN_x where x can be (0..15).
 404:Drivers/STM32F4xx_HAL_Driver/Src/stm32f4xx_hal_gpio.c ****   * @param  PinState specifies the value to be written to the selected bit.
 405:Drivers/STM32F4xx_HAL_Driver/Src/stm32f4xx_hal_gpio.c ****   *          This parameter can be one of the GPIO_PinState enum values:
 406:Drivers/STM32F4xx_HAL_Driver/Src/stm32f4xx_hal_gpio.c ****   *            @arg GPIO_PIN_RESET: to clear the port pin
 407:Drivers/STM32F4xx_HAL_Driver/Src/stm32f4xx_hal_gpio.c ****   *            @arg GPIO_PIN_SET: to set the port pin
 408:Drivers/STM32F4xx_HAL_Driver/Src/stm32f4xx_hal_gpio.c ****   * @retval None
 409:Drivers/STM32F4xx_HAL_Driver/Src/stm32f4xx_hal_gpio.c ****   */
 410:Drivers/STM32F4xx_HAL_Driver/Src/stm32f4xx_hal_gpio.c **** void HAL_GPIO_WritePin(GPIO_TypeDef* GPIOx, uint16_t GPIO_Pin, GPIO_PinState PinState)
 411:Drivers/STM32F4xx_HAL_Driver/Src/stm32f4xx_hal_gpio.c **** {
 1346              		.loc 1 411 1
 1347              		.cfi_startproc
 1348              		@ args = 0, pretend = 0, frame = 8
 1349              		@ frame_needed = 1, uses_anonymous_args = 0
 1350 0000 80B5     		push	{r7, lr}
 1351              	.LCFI15:
 1352              		.cfi_def_cfa_offset 8
 1353              		.cfi_offset 7, -8
 1354              		.cfi_offset 14, -4
ARM GAS  /tmp/ccZZ89G2.s 			page 32


 1355 0002 82B0     		sub	sp, sp, #8
 1356              	.LCFI16:
 1357              		.cfi_def_cfa_offset 16
 1358 0004 00AF     		add	r7, sp, #0
 1359              	.LCFI17:
 1360              		.cfi_def_cfa_register 7
 1361 0006 7860     		str	r0, [r7, #4]
 1362 0008 0B46     		mov	r3, r1
 1363 000a 7B80     		strh	r3, [r7, #2]	@ movhi
 1364 000c 1346     		mov	r3, r2
 1365 000e 7B70     		strb	r3, [r7, #1]
 412:Drivers/STM32F4xx_HAL_Driver/Src/stm32f4xx_hal_gpio.c ****   /* Check the parameters */
 413:Drivers/STM32F4xx_HAL_Driver/Src/stm32f4xx_hal_gpio.c ****   assert_param(IS_GPIO_PIN(GPIO_Pin));
 1366              		.loc 1 413 3
 1367 0010 7B88     		ldrh	r3, [r7, #2]
 1368 0012 002B     		cmp	r3, #0
 1369 0014 04D0     		beq	.L64
 1370              		.loc 1 413 3 is_stmt 0 discriminator 2
 1371 0016 7B88     		ldrh	r3, [r7, #2]
 1372 0018 1B0C     		lsrs	r3, r3, #16
 1373 001a 1B04     		lsls	r3, r3, #16
 1374 001c 002B     		cmp	r3, #0
 1375 001e 04D0     		beq	.L65
 1376              	.L64:
 1377              		.loc 1 413 3 discriminator 3
 1378 0020 40F29D11 		movw	r1, #413
 1379 0024 0E48     		ldr	r0, .L70
 1380 0026 FFF7FEFF 		bl	assert_failed
 1381              	.L65:
 414:Drivers/STM32F4xx_HAL_Driver/Src/stm32f4xx_hal_gpio.c ****   assert_param(IS_GPIO_PIN_ACTION(PinState));
 1382              		.loc 1 414 3 is_stmt 1
 1383 002a 7B78     		ldrb	r3, [r7, #1]	@ zero_extendqisi2
 1384 002c 002B     		cmp	r3, #0
 1385 002e 07D0     		beq	.L66
 1386              		.loc 1 414 3 is_stmt 0 discriminator 1
 1387 0030 7B78     		ldrb	r3, [r7, #1]	@ zero_extendqisi2
 1388 0032 012B     		cmp	r3, #1
 1389 0034 04D0     		beq	.L66
 1390              		.loc 1 414 3 discriminator 2
 1391 0036 4FF4CF71 		mov	r1, #414
 1392 003a 0948     		ldr	r0, .L70
 1393 003c FFF7FEFF 		bl	assert_failed
 1394              	.L66:
 415:Drivers/STM32F4xx_HAL_Driver/Src/stm32f4xx_hal_gpio.c **** 
 416:Drivers/STM32F4xx_HAL_Driver/Src/stm32f4xx_hal_gpio.c ****   if(PinState != GPIO_PIN_RESET)
 1395              		.loc 1 416 5 is_stmt 1
 1396 0040 7B78     		ldrb	r3, [r7, #1]	@ zero_extendqisi2
 1397 0042 002B     		cmp	r3, #0
 1398 0044 03D0     		beq	.L67
 417:Drivers/STM32F4xx_HAL_Driver/Src/stm32f4xx_hal_gpio.c ****   {
 418:Drivers/STM32F4xx_HAL_Driver/Src/stm32f4xx_hal_gpio.c ****     GPIOx->BSRR = GPIO_Pin;
 1399              		.loc 1 418 17
 1400 0046 7A88     		ldrh	r2, [r7, #2]
 1401 0048 7B68     		ldr	r3, [r7, #4]
 1402 004a 9A61     		str	r2, [r3, #24]
 419:Drivers/STM32F4xx_HAL_Driver/Src/stm32f4xx_hal_gpio.c ****   }
 420:Drivers/STM32F4xx_HAL_Driver/Src/stm32f4xx_hal_gpio.c ****   else
ARM GAS  /tmp/ccZZ89G2.s 			page 33


 421:Drivers/STM32F4xx_HAL_Driver/Src/stm32f4xx_hal_gpio.c ****   {
 422:Drivers/STM32F4xx_HAL_Driver/Src/stm32f4xx_hal_gpio.c ****     GPIOx->BSRR = (uint32_t)GPIO_Pin << 16U;
 423:Drivers/STM32F4xx_HAL_Driver/Src/stm32f4xx_hal_gpio.c ****   }
 424:Drivers/STM32F4xx_HAL_Driver/Src/stm32f4xx_hal_gpio.c **** }
 1403              		.loc 1 424 1
 1404 004c 03E0     		b	.L69
 1405              	.L67:
 422:Drivers/STM32F4xx_HAL_Driver/Src/stm32f4xx_hal_gpio.c ****   }
 1406              		.loc 1 422 19
 1407 004e 7B88     		ldrh	r3, [r7, #2]
 422:Drivers/STM32F4xx_HAL_Driver/Src/stm32f4xx_hal_gpio.c ****   }
 1408              		.loc 1 422 38
 1409 0050 1A04     		lsls	r2, r3, #16
 422:Drivers/STM32F4xx_HAL_Driver/Src/stm32f4xx_hal_gpio.c ****   }
 1410              		.loc 1 422 17
 1411 0052 7B68     		ldr	r3, [r7, #4]
 1412 0054 9A61     		str	r2, [r3, #24]
 1413              	.L69:
 1414              		.loc 1 424 1
 1415 0056 00BF     		nop
 1416 0058 0837     		adds	r7, r7, #8
 1417              	.LCFI18:
 1418              		.cfi_def_cfa_offset 8
 1419 005a BD46     		mov	sp, r7
 1420              	.LCFI19:
 1421              		.cfi_def_cfa_register 13
 1422              		@ sp needed
 1423 005c 80BD     		pop	{r7, pc}
 1424              	.L71:
 1425 005e 00BF     		.align	2
 1426              	.L70:
 1427 0060 00000000 		.word	.LC0
 1428              		.cfi_endproc
 1429              	.LFE133:
 1431              		.section	.text.HAL_GPIO_TogglePin,"ax",%progbits
 1432              		.align	1
 1433              		.global	HAL_GPIO_TogglePin
 1434              		.syntax unified
 1435              		.thumb
 1436              		.thumb_func
 1437              		.fpu fpv4-sp-d16
 1439              	HAL_GPIO_TogglePin:
 1440              	.LFB134:
 425:Drivers/STM32F4xx_HAL_Driver/Src/stm32f4xx_hal_gpio.c **** 
 426:Drivers/STM32F4xx_HAL_Driver/Src/stm32f4xx_hal_gpio.c **** /**
 427:Drivers/STM32F4xx_HAL_Driver/Src/stm32f4xx_hal_gpio.c ****   * @brief  Toggles the specified GPIO pins.
 428:Drivers/STM32F4xx_HAL_Driver/Src/stm32f4xx_hal_gpio.c ****   * @param  GPIOx Where x can be (A..K) to select the GPIO peripheral for STM32F429X device or
 429:Drivers/STM32F4xx_HAL_Driver/Src/stm32f4xx_hal_gpio.c ****   *                      x can be (A..I) to select the GPIO peripheral for STM32F40XX and STM32F427
 430:Drivers/STM32F4xx_HAL_Driver/Src/stm32f4xx_hal_gpio.c ****   * @param  GPIO_Pin Specifies the pins to be toggled.
 431:Drivers/STM32F4xx_HAL_Driver/Src/stm32f4xx_hal_gpio.c ****   * @retval None
 432:Drivers/STM32F4xx_HAL_Driver/Src/stm32f4xx_hal_gpio.c ****   */
 433:Drivers/STM32F4xx_HAL_Driver/Src/stm32f4xx_hal_gpio.c **** void HAL_GPIO_TogglePin(GPIO_TypeDef* GPIOx, uint16_t GPIO_Pin)
 434:Drivers/STM32F4xx_HAL_Driver/Src/stm32f4xx_hal_gpio.c **** {
 1441              		.loc 1 434 1
 1442              		.cfi_startproc
 1443              		@ args = 0, pretend = 0, frame = 16
 1444              		@ frame_needed = 1, uses_anonymous_args = 0
ARM GAS  /tmp/ccZZ89G2.s 			page 34


 1445 0000 80B5     		push	{r7, lr}
 1446              	.LCFI20:
 1447              		.cfi_def_cfa_offset 8
 1448              		.cfi_offset 7, -8
 1449              		.cfi_offset 14, -4
 1450 0002 84B0     		sub	sp, sp, #16
 1451              	.LCFI21:
 1452              		.cfi_def_cfa_offset 24
 1453 0004 00AF     		add	r7, sp, #0
 1454              	.LCFI22:
 1455              		.cfi_def_cfa_register 7
 1456 0006 7860     		str	r0, [r7, #4]
 1457 0008 0B46     		mov	r3, r1
 1458 000a 7B80     		strh	r3, [r7, #2]	@ movhi
 435:Drivers/STM32F4xx_HAL_Driver/Src/stm32f4xx_hal_gpio.c ****   uint32_t odr;
 436:Drivers/STM32F4xx_HAL_Driver/Src/stm32f4xx_hal_gpio.c **** 
 437:Drivers/STM32F4xx_HAL_Driver/Src/stm32f4xx_hal_gpio.c ****   /* Check the parameters */
 438:Drivers/STM32F4xx_HAL_Driver/Src/stm32f4xx_hal_gpio.c ****   assert_param(IS_GPIO_PIN(GPIO_Pin));
 1459              		.loc 1 438 3
 1460 000c 7B88     		ldrh	r3, [r7, #2]
 1461 000e 002B     		cmp	r3, #0
 1462 0010 04D0     		beq	.L73
 1463              		.loc 1 438 3 is_stmt 0 discriminator 2
 1464 0012 7B88     		ldrh	r3, [r7, #2]
 1465 0014 1B0C     		lsrs	r3, r3, #16
 1466 0016 1B04     		lsls	r3, r3, #16
 1467 0018 002B     		cmp	r3, #0
 1468 001a 04D0     		beq	.L74
 1469              	.L73:
 1470              		.loc 1 438 3 discriminator 3
 1471 001c 4FF4DB71 		mov	r1, #438
 1472 0020 0A48     		ldr	r0, .L75
 1473 0022 FFF7FEFF 		bl	assert_failed
 1474              	.L74:
 439:Drivers/STM32F4xx_HAL_Driver/Src/stm32f4xx_hal_gpio.c **** 
 440:Drivers/STM32F4xx_HAL_Driver/Src/stm32f4xx_hal_gpio.c ****   /* get current Output Data Register value */
 441:Drivers/STM32F4xx_HAL_Driver/Src/stm32f4xx_hal_gpio.c ****   odr = GPIOx->ODR;
 1475              		.loc 1 441 7 is_stmt 1
 1476 0026 7B68     		ldr	r3, [r7, #4]
 1477 0028 5B69     		ldr	r3, [r3, #20]
 1478 002a FB60     		str	r3, [r7, #12]
 442:Drivers/STM32F4xx_HAL_Driver/Src/stm32f4xx_hal_gpio.c **** 
 443:Drivers/STM32F4xx_HAL_Driver/Src/stm32f4xx_hal_gpio.c ****   /* Set selected pins that were at low level, and reset ones that were high */
 444:Drivers/STM32F4xx_HAL_Driver/Src/stm32f4xx_hal_gpio.c ****   GPIOx->BSRR = ((odr & GPIO_Pin) << GPIO_NUMBER) | (~odr & GPIO_Pin);
 1479              		.loc 1 444 23
 1480 002c 7A88     		ldrh	r2, [r7, #2]
 1481 002e FB68     		ldr	r3, [r7, #12]
 1482 0030 1340     		ands	r3, r3, r2
 1483              		.loc 1 444 35
 1484 0032 1A04     		lsls	r2, r3, #16
 1485              		.loc 1 444 54
 1486 0034 FB68     		ldr	r3, [r7, #12]
 1487 0036 D943     		mvns	r1, r3
 1488              		.loc 1 444 59
 1489 0038 7B88     		ldrh	r3, [r7, #2]
 1490 003a 0B40     		ands	r3, r3, r1
 1491              		.loc 1 444 51
ARM GAS  /tmp/ccZZ89G2.s 			page 35


 1492 003c 1A43     		orrs	r2, r2, r3
 1493              		.loc 1 444 15
 1494 003e 7B68     		ldr	r3, [r7, #4]
 1495 0040 9A61     		str	r2, [r3, #24]
 445:Drivers/STM32F4xx_HAL_Driver/Src/stm32f4xx_hal_gpio.c **** }
 1496              		.loc 1 445 1
 1497 0042 00BF     		nop
 1498 0044 1037     		adds	r7, r7, #16
 1499              	.LCFI23:
 1500              		.cfi_def_cfa_offset 8
 1501 0046 BD46     		mov	sp, r7
 1502              	.LCFI24:
 1503              		.cfi_def_cfa_register 13
 1504              		@ sp needed
 1505 0048 80BD     		pop	{r7, pc}
 1506              	.L76:
 1507 004a 00BF     		.align	2
 1508              	.L75:
 1509 004c 00000000 		.word	.LC0
 1510              		.cfi_endproc
 1511              	.LFE134:
 1513              		.section	.text.HAL_GPIO_LockPin,"ax",%progbits
 1514              		.align	1
 1515              		.global	HAL_GPIO_LockPin
 1516              		.syntax unified
 1517              		.thumb
 1518              		.thumb_func
 1519              		.fpu fpv4-sp-d16
 1521              	HAL_GPIO_LockPin:
 1522              	.LFB135:
 446:Drivers/STM32F4xx_HAL_Driver/Src/stm32f4xx_hal_gpio.c **** 
 447:Drivers/STM32F4xx_HAL_Driver/Src/stm32f4xx_hal_gpio.c **** /**
 448:Drivers/STM32F4xx_HAL_Driver/Src/stm32f4xx_hal_gpio.c ****   * @brief  Locks GPIO Pins configuration registers.
 449:Drivers/STM32F4xx_HAL_Driver/Src/stm32f4xx_hal_gpio.c ****   * @note   The locked registers are GPIOx_MODER, GPIOx_OTYPER, GPIOx_OSPEEDR,
 450:Drivers/STM32F4xx_HAL_Driver/Src/stm32f4xx_hal_gpio.c ****   *         GPIOx_PUPDR, GPIOx_AFRL and GPIOx_AFRH.
 451:Drivers/STM32F4xx_HAL_Driver/Src/stm32f4xx_hal_gpio.c ****   * @note   The configuration of the locked GPIO pins can no longer be modified
 452:Drivers/STM32F4xx_HAL_Driver/Src/stm32f4xx_hal_gpio.c ****   *         until the next reset.
 453:Drivers/STM32F4xx_HAL_Driver/Src/stm32f4xx_hal_gpio.c ****   * @param  GPIOx where x can be (A..F) to select the GPIO peripheral for STM32F4 family
 454:Drivers/STM32F4xx_HAL_Driver/Src/stm32f4xx_hal_gpio.c ****   * @param  GPIO_Pin specifies the port bit to be locked.
 455:Drivers/STM32F4xx_HAL_Driver/Src/stm32f4xx_hal_gpio.c ****   *         This parameter can be any combination of GPIO_PIN_x where x can be (0..15).
 456:Drivers/STM32F4xx_HAL_Driver/Src/stm32f4xx_hal_gpio.c ****   * @retval None
 457:Drivers/STM32F4xx_HAL_Driver/Src/stm32f4xx_hal_gpio.c ****   */
 458:Drivers/STM32F4xx_HAL_Driver/Src/stm32f4xx_hal_gpio.c **** HAL_StatusTypeDef HAL_GPIO_LockPin(GPIO_TypeDef* GPIOx, uint16_t GPIO_Pin)
 459:Drivers/STM32F4xx_HAL_Driver/Src/stm32f4xx_hal_gpio.c **** {
 1523              		.loc 1 459 1
 1524              		.cfi_startproc
 1525              		@ args = 0, pretend = 0, frame = 16
 1526              		@ frame_needed = 1, uses_anonymous_args = 0
 1527 0000 80B5     		push	{r7, lr}
 1528              	.LCFI25:
 1529              		.cfi_def_cfa_offset 8
 1530              		.cfi_offset 7, -8
 1531              		.cfi_offset 14, -4
 1532 0002 84B0     		sub	sp, sp, #16
 1533              	.LCFI26:
 1534              		.cfi_def_cfa_offset 24
 1535 0004 00AF     		add	r7, sp, #0
ARM GAS  /tmp/ccZZ89G2.s 			page 36


 1536              	.LCFI27:
 1537              		.cfi_def_cfa_register 7
 1538 0006 7860     		str	r0, [r7, #4]
 1539 0008 0B46     		mov	r3, r1
 1540 000a 7B80     		strh	r3, [r7, #2]	@ movhi
 460:Drivers/STM32F4xx_HAL_Driver/Src/stm32f4xx_hal_gpio.c ****   __IO uint32_t tmp = GPIO_LCKR_LCKK;
 1541              		.loc 1 460 17
 1542 000c 4FF48033 		mov	r3, #65536
 1543 0010 FB60     		str	r3, [r7, #12]
 461:Drivers/STM32F4xx_HAL_Driver/Src/stm32f4xx_hal_gpio.c **** 
 462:Drivers/STM32F4xx_HAL_Driver/Src/stm32f4xx_hal_gpio.c ****   /* Check the parameters */
 463:Drivers/STM32F4xx_HAL_Driver/Src/stm32f4xx_hal_gpio.c ****   assert_param(IS_GPIO_PIN(GPIO_Pin));
 1544              		.loc 1 463 3
 1545 0012 7B88     		ldrh	r3, [r7, #2]
 1546 0014 002B     		cmp	r3, #0
 1547 0016 04D0     		beq	.L78
 1548              		.loc 1 463 3 is_stmt 0 discriminator 2
 1549 0018 7B88     		ldrh	r3, [r7, #2]
 1550 001a 1B0C     		lsrs	r3, r3, #16
 1551 001c 1B04     		lsls	r3, r3, #16
 1552 001e 002B     		cmp	r3, #0
 1553 0020 04D0     		beq	.L79
 1554              	.L78:
 1555              		.loc 1 463 3 discriminator 3
 1556 0022 40F2CF11 		movw	r1, #463
 1557 0026 1048     		ldr	r0, .L82
 1558 0028 FFF7FEFF 		bl	assert_failed
 1559              	.L79:
 464:Drivers/STM32F4xx_HAL_Driver/Src/stm32f4xx_hal_gpio.c **** 
 465:Drivers/STM32F4xx_HAL_Driver/Src/stm32f4xx_hal_gpio.c ****   /* Apply lock key write sequence */
 466:Drivers/STM32F4xx_HAL_Driver/Src/stm32f4xx_hal_gpio.c ****   tmp |= GPIO_Pin;
 1560              		.loc 1 466 7 is_stmt 1
 1561 002c 7A88     		ldrh	r2, [r7, #2]
 1562 002e FB68     		ldr	r3, [r7, #12]
 1563 0030 1343     		orrs	r3, r3, r2
 1564 0032 FB60     		str	r3, [r7, #12]
 467:Drivers/STM32F4xx_HAL_Driver/Src/stm32f4xx_hal_gpio.c ****   /* Set LCKx bit(s): LCKK='1' + LCK[15-0] */
 468:Drivers/STM32F4xx_HAL_Driver/Src/stm32f4xx_hal_gpio.c ****   GPIOx->LCKR = tmp;
 1565              		.loc 1 468 15
 1566 0034 FA68     		ldr	r2, [r7, #12]
 1567 0036 7B68     		ldr	r3, [r7, #4]
 1568 0038 DA61     		str	r2, [r3, #28]
 469:Drivers/STM32F4xx_HAL_Driver/Src/stm32f4xx_hal_gpio.c ****   /* Reset LCKx bit(s): LCKK='0' + LCK[15-0] */
 470:Drivers/STM32F4xx_HAL_Driver/Src/stm32f4xx_hal_gpio.c ****   GPIOx->LCKR = GPIO_Pin;
 1569              		.loc 1 470 15
 1570 003a 7A88     		ldrh	r2, [r7, #2]
 1571 003c 7B68     		ldr	r3, [r7, #4]
 1572 003e DA61     		str	r2, [r3, #28]
 471:Drivers/STM32F4xx_HAL_Driver/Src/stm32f4xx_hal_gpio.c ****   /* Set LCKx bit(s): LCKK='1' + LCK[15-0] */
 472:Drivers/STM32F4xx_HAL_Driver/Src/stm32f4xx_hal_gpio.c ****   GPIOx->LCKR = tmp;
 1573              		.loc 1 472 15
 1574 0040 FA68     		ldr	r2, [r7, #12]
 1575 0042 7B68     		ldr	r3, [r7, #4]
 1576 0044 DA61     		str	r2, [r3, #28]
 473:Drivers/STM32F4xx_HAL_Driver/Src/stm32f4xx_hal_gpio.c ****   /* Read LCKR register. This read is mandatory to complete key lock sequence */
 474:Drivers/STM32F4xx_HAL_Driver/Src/stm32f4xx_hal_gpio.c ****   tmp = GPIOx->LCKR;
 1577              		.loc 1 474 14
ARM GAS  /tmp/ccZZ89G2.s 			page 37


 1578 0046 7B68     		ldr	r3, [r7, #4]
 1579 0048 DB69     		ldr	r3, [r3, #28]
 1580              		.loc 1 474 7
 1581 004a FB60     		str	r3, [r7, #12]
 475:Drivers/STM32F4xx_HAL_Driver/Src/stm32f4xx_hal_gpio.c **** 
 476:Drivers/STM32F4xx_HAL_Driver/Src/stm32f4xx_hal_gpio.c ****   /* Read again in order to confirm lock is active */
 477:Drivers/STM32F4xx_HAL_Driver/Src/stm32f4xx_hal_gpio.c ****  if((GPIOx->LCKR & GPIO_LCKR_LCKK) != RESET)
 1582              		.loc 1 477 11
 1583 004c 7B68     		ldr	r3, [r7, #4]
 1584 004e DB69     		ldr	r3, [r3, #28]
 1585              		.loc 1 477 18
 1586 0050 03F48033 		and	r3, r3, #65536
 1587              		.loc 1 477 4
 1588 0054 002B     		cmp	r3, #0
 1589 0056 01D0     		beq	.L80
 478:Drivers/STM32F4xx_HAL_Driver/Src/stm32f4xx_hal_gpio.c ****   {
 479:Drivers/STM32F4xx_HAL_Driver/Src/stm32f4xx_hal_gpio.c ****     return HAL_OK;
 1590              		.loc 1 479 12
 1591 0058 0023     		movs	r3, #0
 1592 005a 00E0     		b	.L81
 1593              	.L80:
 480:Drivers/STM32F4xx_HAL_Driver/Src/stm32f4xx_hal_gpio.c ****   }
 481:Drivers/STM32F4xx_HAL_Driver/Src/stm32f4xx_hal_gpio.c ****   else
 482:Drivers/STM32F4xx_HAL_Driver/Src/stm32f4xx_hal_gpio.c ****   {
 483:Drivers/STM32F4xx_HAL_Driver/Src/stm32f4xx_hal_gpio.c ****     return HAL_ERROR;
 1594              		.loc 1 483 12
 1595 005c 0123     		movs	r3, #1
 1596              	.L81:
 484:Drivers/STM32F4xx_HAL_Driver/Src/stm32f4xx_hal_gpio.c ****   }
 485:Drivers/STM32F4xx_HAL_Driver/Src/stm32f4xx_hal_gpio.c **** }
 1597              		.loc 1 485 1
 1598 005e 1846     		mov	r0, r3
 1599 0060 1037     		adds	r7, r7, #16
 1600              	.LCFI28:
 1601              		.cfi_def_cfa_offset 8
 1602 0062 BD46     		mov	sp, r7
 1603              	.LCFI29:
 1604              		.cfi_def_cfa_register 13
 1605              		@ sp needed
 1606 0064 80BD     		pop	{r7, pc}
 1607              	.L83:
 1608 0066 00BF     		.align	2
 1609              	.L82:
 1610 0068 00000000 		.word	.LC0
 1611              		.cfi_endproc
 1612              	.LFE135:
 1614              		.section	.text.HAL_GPIO_EXTI_IRQHandler,"ax",%progbits
 1615              		.align	1
 1616              		.global	HAL_GPIO_EXTI_IRQHandler
 1617              		.syntax unified
 1618              		.thumb
 1619              		.thumb_func
 1620              		.fpu fpv4-sp-d16
 1622              	HAL_GPIO_EXTI_IRQHandler:
 1623              	.LFB136:
 486:Drivers/STM32F4xx_HAL_Driver/Src/stm32f4xx_hal_gpio.c **** 
 487:Drivers/STM32F4xx_HAL_Driver/Src/stm32f4xx_hal_gpio.c **** /**
ARM GAS  /tmp/ccZZ89G2.s 			page 38


 488:Drivers/STM32F4xx_HAL_Driver/Src/stm32f4xx_hal_gpio.c ****   * @brief  This function handles EXTI interrupt request.
 489:Drivers/STM32F4xx_HAL_Driver/Src/stm32f4xx_hal_gpio.c ****   * @param  GPIO_Pin Specifies the pins connected EXTI line
 490:Drivers/STM32F4xx_HAL_Driver/Src/stm32f4xx_hal_gpio.c ****   * @retval None
 491:Drivers/STM32F4xx_HAL_Driver/Src/stm32f4xx_hal_gpio.c ****   */
 492:Drivers/STM32F4xx_HAL_Driver/Src/stm32f4xx_hal_gpio.c **** void HAL_GPIO_EXTI_IRQHandler(uint16_t GPIO_Pin)
 493:Drivers/STM32F4xx_HAL_Driver/Src/stm32f4xx_hal_gpio.c **** {
 1624              		.loc 1 493 1
 1625              		.cfi_startproc
 1626              		@ args = 0, pretend = 0, frame = 8
 1627              		@ frame_needed = 1, uses_anonymous_args = 0
 1628 0000 80B5     		push	{r7, lr}
 1629              	.LCFI30:
 1630              		.cfi_def_cfa_offset 8
 1631              		.cfi_offset 7, -8
 1632              		.cfi_offset 14, -4
 1633 0002 82B0     		sub	sp, sp, #8
 1634              	.LCFI31:
 1635              		.cfi_def_cfa_offset 16
 1636 0004 00AF     		add	r7, sp, #0
 1637              	.LCFI32:
 1638              		.cfi_def_cfa_register 7
 1639 0006 0346     		mov	r3, r0
 1640 0008 FB80     		strh	r3, [r7, #6]	@ movhi
 494:Drivers/STM32F4xx_HAL_Driver/Src/stm32f4xx_hal_gpio.c ****   /* EXTI line interrupt detected */
 495:Drivers/STM32F4xx_HAL_Driver/Src/stm32f4xx_hal_gpio.c ****   if(__HAL_GPIO_EXTI_GET_IT(GPIO_Pin) != RESET)
 1641              		.loc 1 495 6
 1642 000a 084B     		ldr	r3, .L87
 1643 000c 5A69     		ldr	r2, [r3, #20]
 1644 000e FB88     		ldrh	r3, [r7, #6]
 1645 0010 1340     		ands	r3, r3, r2
 1646              		.loc 1 495 5
 1647 0012 002B     		cmp	r3, #0
 1648 0014 06D0     		beq	.L86
 496:Drivers/STM32F4xx_HAL_Driver/Src/stm32f4xx_hal_gpio.c ****   {
 497:Drivers/STM32F4xx_HAL_Driver/Src/stm32f4xx_hal_gpio.c ****     __HAL_GPIO_EXTI_CLEAR_IT(GPIO_Pin);
 1649              		.loc 1 497 5
 1650 0016 054A     		ldr	r2, .L87
 1651 0018 FB88     		ldrh	r3, [r7, #6]
 1652 001a 5361     		str	r3, [r2, #20]
 498:Drivers/STM32F4xx_HAL_Driver/Src/stm32f4xx_hal_gpio.c ****     HAL_GPIO_EXTI_Callback(GPIO_Pin);
 1653              		.loc 1 498 5
 1654 001c FB88     		ldrh	r3, [r7, #6]
 1655 001e 1846     		mov	r0, r3
 1656 0020 FFF7FEFF 		bl	HAL_GPIO_EXTI_Callback
 1657              	.L86:
 499:Drivers/STM32F4xx_HAL_Driver/Src/stm32f4xx_hal_gpio.c ****   }
 500:Drivers/STM32F4xx_HAL_Driver/Src/stm32f4xx_hal_gpio.c **** }
 1658              		.loc 1 500 1
 1659 0024 00BF     		nop
 1660 0026 0837     		adds	r7, r7, #8
 1661              	.LCFI33:
 1662              		.cfi_def_cfa_offset 8
 1663 0028 BD46     		mov	sp, r7
 1664              	.LCFI34:
 1665              		.cfi_def_cfa_register 13
 1666              		@ sp needed
 1667 002a 80BD     		pop	{r7, pc}
ARM GAS  /tmp/ccZZ89G2.s 			page 39


 1668              	.L88:
 1669              		.align	2
 1670              	.L87:
 1671 002c 003C0140 		.word	1073822720
 1672              		.cfi_endproc
 1673              	.LFE136:
 1675              		.section	.text.HAL_GPIO_EXTI_Callback,"ax",%progbits
 1676              		.align	1
 1677              		.weak	HAL_GPIO_EXTI_Callback
 1678              		.syntax unified
 1679              		.thumb
 1680              		.thumb_func
 1681              		.fpu fpv4-sp-d16
 1683              	HAL_GPIO_EXTI_Callback:
 1684              	.LFB137:
 501:Drivers/STM32F4xx_HAL_Driver/Src/stm32f4xx_hal_gpio.c **** 
 502:Drivers/STM32F4xx_HAL_Driver/Src/stm32f4xx_hal_gpio.c **** /**
 503:Drivers/STM32F4xx_HAL_Driver/Src/stm32f4xx_hal_gpio.c ****   * @brief  EXTI line detection callbacks.
 504:Drivers/STM32F4xx_HAL_Driver/Src/stm32f4xx_hal_gpio.c ****   * @param  GPIO_Pin Specifies the pins connected EXTI line
 505:Drivers/STM32F4xx_HAL_Driver/Src/stm32f4xx_hal_gpio.c ****   * @retval None
 506:Drivers/STM32F4xx_HAL_Driver/Src/stm32f4xx_hal_gpio.c ****   */
 507:Drivers/STM32F4xx_HAL_Driver/Src/stm32f4xx_hal_gpio.c **** __weak void HAL_GPIO_EXTI_Callback(uint16_t GPIO_Pin)
 508:Drivers/STM32F4xx_HAL_Driver/Src/stm32f4xx_hal_gpio.c **** {
 1685              		.loc 1 508 1
 1686              		.cfi_startproc
 1687              		@ args = 0, pretend = 0, frame = 8
 1688              		@ frame_needed = 1, uses_anonymous_args = 0
 1689              		@ link register save eliminated.
 1690 0000 80B4     		push	{r7}
 1691              	.LCFI35:
 1692              		.cfi_def_cfa_offset 4
 1693              		.cfi_offset 7, -4
 1694 0002 83B0     		sub	sp, sp, #12
 1695              	.LCFI36:
 1696              		.cfi_def_cfa_offset 16
 1697 0004 00AF     		add	r7, sp, #0
 1698              	.LCFI37:
 1699              		.cfi_def_cfa_register 7
 1700 0006 0346     		mov	r3, r0
 1701 0008 FB80     		strh	r3, [r7, #6]	@ movhi
 509:Drivers/STM32F4xx_HAL_Driver/Src/stm32f4xx_hal_gpio.c ****   /* Prevent unused argument(s) compilation warning */
 510:Drivers/STM32F4xx_HAL_Driver/Src/stm32f4xx_hal_gpio.c ****   UNUSED(GPIO_Pin);
 511:Drivers/STM32F4xx_HAL_Driver/Src/stm32f4xx_hal_gpio.c ****   /* NOTE: This function Should not be modified, when the callback is needed,
 512:Drivers/STM32F4xx_HAL_Driver/Src/stm32f4xx_hal_gpio.c ****            the HAL_GPIO_EXTI_Callback could be implemented in the user file
 513:Drivers/STM32F4xx_HAL_Driver/Src/stm32f4xx_hal_gpio.c ****    */
 514:Drivers/STM32F4xx_HAL_Driver/Src/stm32f4xx_hal_gpio.c **** }
 1702              		.loc 1 514 1
 1703 000a 00BF     		nop
 1704 000c 0C37     		adds	r7, r7, #12
 1705              	.LCFI38:
 1706              		.cfi_def_cfa_offset 4
 1707 000e BD46     		mov	sp, r7
 1708              	.LCFI39:
 1709              		.cfi_def_cfa_register 13
 1710              		@ sp needed
 1711 0010 5DF8047B 		ldr	r7, [sp], #4
 1712              	.LCFI40:
ARM GAS  /tmp/ccZZ89G2.s 			page 40


 1713              		.cfi_restore 7
 1714              		.cfi_def_cfa_offset 0
 1715 0014 7047     		bx	lr
 1716              		.cfi_endproc
 1717              	.LFE137:
 1719              		.text
 1720              	.Letext0:
 1721              		.file 2 "/usr/lib/gcc/arm-none-eabi/10.3.1/include/stdint.h"
 1722              		.file 3 "Drivers/CMSIS/Device/ST/STM32F4xx/Include/stm32f411xe.h"
 1723              		.file 4 "Drivers/CMSIS/Device/ST/STM32F4xx/Include/stm32f4xx.h"
 1724              		.file 5 "Drivers/STM32F4xx_HAL_Driver/Inc/stm32f4xx_hal_def.h"
 1725              		.file 6 "Drivers/STM32F4xx_HAL_Driver/Inc/stm32f4xx_hal_gpio.h"
ARM GAS  /tmp/ccZZ89G2.s 			page 41

